Certificate:
    Data:
        Version: 1 (0x0)
        Serial Number: 237 (0xed)
        Signature Algorithm: ecdsa-with-SHA1
        Issuer: CN=prime256v1 ecdsa Test intermediate CA
        Validity
            Not Before: Dec 12 22:47:53 2011 GMT
            Not After : Dec  9 22:47:53 2021 GMT
        Subject: C=US, ST=California, L=Mountain View, O=Test CA, CN=127.0.0.1
        Subject Public Key Info:
            Public Key Algorithm: rsaEncryption
            RSA Public Key: (1024 bit)
                Modulus (1024 bit):
                    00:cc:ca:df:89:1f:e5:aa:3c:2e:d1:62:85:de:2a:
                    4c:bd:68:89:d0:05:06:56:30:f5:6e:93:a4:4f:74:
                    c0:7e:14:5f:1b:dd:93:33:ea:b7:17:8d:63:3e:c4:
                    2e:2c:b3:0c:62:37:0f:1b:90:16:8e:73:b5:90:3f:
                    c5:e2:08:9d:b6:8f:80:e0:95:3d:28:d3:8f:d7:b7:
                    0e:8b:43:8c:95:29:a9:51:3b:6d:0d:35:ea:c1:ff:
                    d8:8b:47:71:7b:3b:4c:65:7f:a9:85:43:6e:43:1f:
                    9d:9c:ff:15:d2:ac:29:db:5f:56:42:88:4a:68:0d:
                    49:73:0a:fd:b2:94:58:95:f7
                Exponent: 65537 (0x10001)
        X509v3 extensions:
            X509v3 Subject Alternative Name: 
                IP Address:127.0.0.1
    Signature Algorithm: ecdsa-with-SHA1
        30:45:02:20:07:1e:96:23:74:f5:77:05:b4:a9:fa:2f:8c:b3:
        3c:48:89:46:38:f0:0d:18:76:d2:9c:ee:cd:2d:8d:ce:7a:71:
        02:21:00:ff:b1:8b:0d:40:a4:ef:1b:9d:ba:d6:92:30:04:38:
        21:b1:ad:53:61:71:83:01:9a:3c:3e:ef:d4:53:59:c7:df
-----BEGIN CERTIFICATE-----
MIIB0zCCAXoCAgDtMAkGByqGSM49BAEwMDEuMCwGA1UEAwwlcHJpbWUyNTZ2MSBl
Y2RzYSBUZXN0IGludGVybWVkaWF0ZSBDQTAeFw0xMTEyMTIyMjQ3NTNaFw0yMTEy
MDkyMjQ3NTNaMGAxCzAJBgNVBAYTAlVTMRMwEQYDVQQIDApDYWxpZm9ybmlhMRYw
FAYDVQQHDA1Nb3VudGFpbiBWaWV3MRAwDgYDVQQKDAdUZXN0IENBMRIwEAYDVQQD
DAkxMjcuMC4wLjEwgZ8wDQYJKoZIhvcNAQEBBQADgY0AMIGJAoGBAMzK34kf5ao8
LtFihd4qTL1oidAFBlYw9W6TpE90wH4UXxvdkzPqtxeNYz7ELiyzDGI3DxuQFo5z
tZA/xeIInbaPgOCVPSjTj9e3DotDjJUpqVE7bQ016sH/2ItHcXs7TGV/qYVDbkMf
nZz/FdKsKdtfVkKISmgNSXMK/bKUWJX3AgMBAAGjEzARMA8GA1UdEQQIMAaHBH8A
AAEwCQYHKoZIzj0EAQNIADBFAiAHHpYjdPV3BbSp+i+MszxIiUY48A0YdtKc7s0t
jc56cQIhAP+xiw1ApO8bnbrWkjAEOCGxrVNhcYMBmjw+79RTWcff
-----END CERTIFICATE-----
