Certificate:
    Data:
        Version: 3 (0x2)
        Serial Number: 237 (0xed)
        Signature Algorithm: sha1WithRSAEncryption
        Issuer: CN=2048 RSA Test Root CA
        Validity
            Not Before: Dec 12 22:47:53 2011 GMT
            Not After : Dec  9 22:47:53 2021 GMT
        Subject: CN=1024 rsa Test intermediate CA
        Subject Public Key Info:
            Public Key Algorithm: rsaEncryption
            RSA Public Key: (1024 bit)
                Modulus (1024 bit):
                    00:bf:d2:b4:44:b4:7a:03:64:91:ca:2d:cf:7b:22:
                    bd:02:f3:5d:b7:97:fa:72:91:cd:c8:9c:4f:e1:6a:
                    52:08:67:3b:2c:06:63:89:c0:0a:cd:e1:80:56:88:
                    27:93:12:32:d6:47:6e:e5:34:ac:9e:f4:17:f3:c8:
                    b1:29:65:3f:75:5a:01:c9:2a:63:48:d7:8a:13:a4:
                    08:ae:8c:a4:95:e4:78:2d:35:ff:73:5e:49:d3:1d:
                    14:f7:c7:7c:56:9c:ff:c9:f9:d4:bf:44:c7:4d:57:
                    71:4d:7d:64:3d:7e:ec:9f:eb:69:50:7b:34:9c:8d:
                    99:0a:4f:26:90:1e:b5:06:8d
                Exponent: 65537 (0x10001)
        X509v3 extensions:
            X509v3 Basic Constraints: critical
                CA:TRUE
            X509v3 Subject Key Identifier: 
                67:2E:75:A1:D2:3D:9D:36:78:59:C4:20:6E:8C:2F:AD:75:5C:16:8B
            X509v3 Key Usage: critical
                Certificate Sign, CRL Sign
    Signature Algorithm: sha1WithRSAEncryption
        44:49:10:c4:22:4f:57:bb:c2:29:c7:77:21:48:a8:1d:ca:7a:
        86:c3:24:3d:7a:f6:05:3b:77:75:5f:54:6f:04:8c:c0:89:e9:
        17:4f:84:c7:23:33:fb:23:d8:f8:c5:46:e4:cc:e1:69:6b:4f:
        b3:a9:1d:36:6c:92:c4:55:c7:73:bd:ff:5b:56:b5:80:f5:a7:
        2c:50:73:04:76:44:b0:ad:61:1e:bc:d0:78:88:77:74:94:1d:
        2d:1d:4f:3b:15:11:47:02:d6:a4:af:f4:8b:75:39:bf:bf:41:
        41:77:db:e1:7d:28:8f:da:66:88:0e:4a:53:81:30:e2:18:3f:
        e6:09:8c:d3:98:00:50:ac:d7:24:08:bf:2d:2c:20:b2:74:06:
        2c:3e:9b:3c:e6:3c:72:08:b0:6d:49:a9:b9:26:67:17:d4:ed:
        95:48:71:72:5d:fe:8d:0a:0f:31:e6:bd:15:ec:e1:36:65:c1:
        b0:00:45:ae:bc:d2:13:0d:ac:6e:4f:8c:f4:29:2c:b1:a0:cb:
        aa:a4:ff:21:92:5b:8d:f7:23:9b:df:18:f6:cb:a4:4b:6c:56:
        e6:bf:e1:74:2e:74:30:8a:d6:ab:16:c3:f2:b2:21:4b:04:a5:
        dd:c5:c4:98:71:4d:ae:47:43:d6:af:8f:d3:4c:13:44:e0:3d:
        d3:4f:68:6a
-----BEGIN CERTIFICATE-----
MIICgjCCAWqgAwIBAgICAO0wDQYJKoZIhvcNAQEFBQAwIDEeMBwGA1UEAwwVMjA0
OCBSU0EgVGVzdCBSb290IENBMB4XDTExMTIxMjIyNDc1M1oXDTIxMTIwOTIyNDc1
M1owKDEmMCQGA1UEAwwdMTAyNCByc2EgVGVzdCBpbnRlcm1lZGlhdGUgQ0EwgZ8w
DQYJKoZIhvcNAQEBBQADgY0AMIGJAoGBAL/StES0egNkkcotz3sivQLzXbeX+nKR
zcicT+FqUghnOywGY4nACs3hgFaIJ5MSMtZHbuU0rJ70F/PIsSllP3VaAckqY0jX
ihOkCK6MpJXkeC01/3NeSdMdFPfHfFac/8n51L9Ex01XcU19ZD1+7J/raVB7NJyN
mQpPJpAetQaNAgMBAAGjQjBAMA8GA1UdEwEB/wQFMAMBAf8wHQYDVR0OBBYEFGcu
daHSPZ02eFnEIG6ML611XBaLMA4GA1UdDwEB/wQEAwIBBjANBgkqhkiG9w0BAQUF
AAOCAQEAREkQxCJPV7vCKcd3IUioHcp6hsMkPXr2BTt3dV9UbwSMwInpF0+ExyMz
+yPY+MVG5MzhaWtPs6kdNmySxFXHc73/W1a1gPWnLFBzBHZEsK1hHrzQeIh3dJQd
LR1POxURRwLWpK/0i3U5v79BQXfb4X0oj9pmiA5KU4Ew4hg/5gmM05gAUKzXJAi/
LSwgsnQGLD6bPOY8cgiwbUmpuSZnF9TtlUhxcl3+jQoPMea9FezhNmXBsABFrrzS
Ew2sbk+M9CkssaDLqqT/IZJbjfcjm98Y9sukS2xW5r/hdC50MIrWqxbD8rIhSwSl
3cXEmHFNrkdD1q+P00wTROA9009oag==
-----END CERTIFICATE-----
