Certificate:
    Data:
        Version: 1 (0x0)
        Serial Number: 237 (0xed)
        Signature Algorithm: sha1WithRSAEncryption
        Issuer: CN=2048 rsa Test intermediate CA
        Validity
            Not Before: Dec 12 22:47:53 2011 GMT
            Not After : Dec  9 22:47:53 2021 GMT
        Subject: C=US, ST=California, L=Mountain View, O=Test CA, CN=127.0.0.1
        Subject Public Key Info:
            Public Key Algorithm: rsaEncryption
            RSA Public Key: (1024 bit)
                Modulus (1024 bit):
                    00:f0:6b:dc:59:dc:ed:79:a3:68:4f:10:00:8b:31:
                    cd:aa:44:34:b9:3b:94:6c:4c:d1:05:3a:ba:bc:93:
                    f6:d6:89:00:ec:71:10:ed:9b:11:84:10:80:d4:51:
                    30:fe:3e:17:bd:d7:e2:89:7b:22:80:ca:73:75:98:
                    e3:67:cd:fd:c4:c8:d1:7a:95:ae:f3:98:95:45:06:
                    91:3c:6f:dc:37:e5:4d:29:9a:e1:99:9b:a3:6b:b5:
                    74:be:1d:f8:97:92:27:1c:15:fb:5b:cb:e4:88:e7:
                    10:ff:2f:8a:59:fd:59:53:76:0f:57:83:db:27:45:
                    0a:00:b0:4f:3a:e9:4d:24:5f
                Exponent: 65537 (0x10001)
        X509v3 extensions:
            X509v3 Subject Alternative Name: 
                IP Address:127.0.0.1
    Signature Algorithm: sha1WithRSAEncryption
        5f:a8:ec:ff:b6:09:b6:6e:42:82:c5:72:9e:ba:d5:d2:7b:36:
        06:fc:c3:8c:ce:ad:47:18:60:4c:ce:aa:08:fc:7d:85:df:e4:
        d7:44:86:89:be:36:bc:04:c9:be:5e:af:85:f5:92:7c:ec:96:
        24:1a:11:c3:e7:8f:bc:79:51:c0:44:4e:4b:d3:d9:3a:6c:7c:
        2c:80:21:d3:22:db:2f:e8:04:94:0d:b0:13:32:ea:d8:26:bd:
        e8:01:c0:ff:57:6a:2d:86:a1:f1:e0:a2:8b:39:73:7a:8b:e9:
        0b:ee:a1:e8:45:56:f7:45:fa:7f:a1:c4:e6:9a:32:c8:2e:03:
        c2:57:f8:f9:be:c1:af:82:39:73:7a:39:e7:8c:c2:36:5c:47:
        5b:c7:20:e2:b1:5f:06:1e:34:c7:f3:e0:4f:a9:b5:34:79:83:
        a0:b2:79:70:a2:b7:1c:a3:1b:7d:7c:e3:24:57:90:0e:3a:43:
        b9:98:68:97:70:17:dc:31:c7:e1:be:2b:d4:a7:1f:97:8a:e4:
        57:58:2f:b3:c6:27:3b:1b:f4:f3:11:0e:4c:31:73:5e:22:c9:
        e0:07:7b:0e:87:06:ba:f9:10:f5:bb:4d:5e:cf:14:ab:57:6b:
        76:8e:bd:66:2d:39:4b:8a:42:00:3e:0b:5e:dc:39:69:89:ca:
        5a:37:4f:bc
-----BEGIN CERTIFICATE-----
MIICjjCCAXYCAgDtMA0GCSqGSIb3DQEBBQUAMCgxJjAkBgNVBAMMHTIwNDggcnNh
IFRlc3QgaW50ZXJtZWRpYXRlIENBMB4XDTExMTIxMjIyNDc1M1oXDTIxMTIwOTIy
NDc1M1owYDELMAkGA1UEBhMCVVMxEzARBgNVBAgMCkNhbGlmb3JuaWExFjAUBgNV
BAcMDU1vdW50YWluIFZpZXcxEDAOBgNVBAoMB1Rlc3QgQ0ExEjAQBgNVBAMMCTEy
Ny4wLjAuMTCBnzANBgkqhkiG9w0BAQEFAAOBjQAwgYkCgYEA8GvcWdzteaNoTxAA
izHNqkQ0uTuUbEzRBTq6vJP21okA7HEQ7ZsRhBCA1FEw/j4XvdfiiXsigMpzdZjj
Z839xMjRepWu85iVRQaRPG/cN+VNKZrhmZuja7V0vh34l5InHBX7W8vkiOcQ/y+K
Wf1ZU3YPV4PbJ0UKALBPOulNJF8CAwEAAaMTMBEwDwYDVR0RBAgwBocEfwAAATAN
BgkqhkiG9w0BAQUFAAOCAQEAX6js/7YJtm5CgsVynrrV0ns2BvzDjM6tRxhgTM6q
CPx9hd/k10SGib42vATJvl6vhfWSfOyWJBoRw+ePvHlRwEROS9PZOmx8LIAh0yLb
L+gElA2wEzLq2Ca96AHA/1dqLYah8eCiizlzeovpC+6h6EVW90X6f6HE5poyyC4D
wlf4+b7Br4I5c3o554zCNlxHW8cg4rFfBh40x/PgT6m1NHmDoLJ5cKK3HKMbfXzj
JFeQDjpDuZhol3AX3DHH4b4r1Kcfl4rkV1gvs8YnOxv08xEOTDFzXiLJ4Ad7DocG
uvkQ9btNXs8Uq1drdo69Zi05S4pCAD4LXtw5aYnKWjdPvA==
-----END CERTIFICATE-----
