Certificate:
    Data:
        Version: 1 (0x0)
        Serial Number: 237 (0xed)
        Signature Algorithm: sha1WithRSAEncryption
        Issuer: CN=768 rsa Test intermediate CA
        Validity
            Not Before: Dec 12 22:47:53 2011 GMT
            Not After : Dec  9 22:47:53 2021 GMT
        Subject: C=US, ST=California, L=Mountain View, O=Test CA, CN=127.0.0.1
        Subject Public Key Info:
            Public Key Algorithm: rsaEncryption
            RSA Public Key: (1024 bit)
                Modulus (1024 bit):
                    00:b5:21:de:d6:d7:1b:b3:ba:1d:9b:cd:89:56:7f:
                    c4:82:cb:86:34:d0:27:3a:95:d9:57:bc:e8:74:e6:
                    cd:01:1a:8c:72:07:68:5b:ad:4e:2a:91:e0:50:e7:
                    23:34:c7:c8:18:d9:7f:e9:f1:a8:09:2e:eb:e1:3f:
                    26:5a:b5:9a:9d:50:82:fb:30:4a:b3:f4:d3:1d:3c:
                    90:5b:67:dc:92:eb:70:78:4f:c4:62:b8:7b:93:3f:
                    70:56:6d:18:4b:a5:63:03:d0:15:c6:94:f5:ed:3c:
                    5b:0d:7e:0a:85:0b:26:2f:0d:c9:68:08:42:33:94:
                    a2:81:7d:b0:34:12:f2:d3:db
                Exponent: 65537 (0x10001)
        X509v3 extensions:
            X509v3 Subject Alternative Name: 
                IP Address:127.0.0.1
    Signature Algorithm: sha1WithRSAEncryption
        ac:96:12:2e:32:99:ba:13:11:ba:67:e3:8c:71:03:4e:ea:3f:
        03:d4:88:a1:eb:93:83:dd:53:02:3b:df:9f:f5:7c:f6:49:e8:
        71:c0:2a:2e:75:c1:53:9e:be:a1:0a:13:21:0c:e2:44:2f:a0:
        12:6e:ed:f5:60:43:2d:79:e8:6d:58:e6:c8:f1:b0:64:04:31:
        0e:f7:61:7c:a0:35:f1:d6:b3:67:b2:6c:e4:5c:6e:ec:02:43:
        a5:7e:00:d8:bf:a7
-----BEGIN CERTIFICATE-----
MIIB6zCCAXUCAgDtMA0GCSqGSIb3DQEBBQUAMCcxJTAjBgNVBAMMHDc2OCByc2Eg
VGVzdCBpbnRlcm1lZGlhdGUgQ0EwHhcNMTExMjEyMjI0NzUzWhcNMjExMjA5MjI0
NzUzWjBgMQswCQYDVQQGEwJVUzETMBEGA1UECAwKQ2FsaWZvcm5pYTEWMBQGA1UE
BwwNTW91bnRhaW4gVmlldzEQMA4GA1UECgwHVGVzdCBDQTESMBAGA1UEAwwJMTI3
LjAuMC4xMIGfMA0GCSqGSIb3DQEBAQUAA4GNADCBiQKBgQC1Id7W1xuzuh2bzYlW
f8SCy4Y00Cc6ldlXvOh05s0BGoxyB2hbrU4qkeBQ5yM0x8gY2X/p8agJLuvhPyZa
tZqdUIL7MEqz9NMdPJBbZ9yS63B4T8RiuHuTP3BWbRhLpWMD0BXGlPXtPFsNfgqF
CyYvDcloCEIzlKKBfbA0EvLT2wIDAQABoxMwETAPBgNVHREECDAGhwR/AAABMA0G
CSqGSIb3DQEBBQUAA2EArJYSLjKZuhMRumfjjHEDTuo/A9SIoeuTg91TAjvfn/V8
9knoccAqLnXBU56+oQoTIQziRC+gEm7t9WBDLXnobVjmyPGwZAQxDvdhfKA18daz
Z7Js5Fxu7AJDpX4A2L+n
-----END CERTIFICATE-----
