Certificate:
    Data:
        Version: 3 (0x2)
        Serial Number: 238 (0xee)
        Signature Algorithm: sha1WithRSAEncryption
        Issuer: CN=2048 RSA Test Root CA
        Validity
            Not Before: Dec 12 22:47:53 2011 GMT
            Not After : Dec  9 22:47:53 2021 GMT
        Subject: CN=2048 rsa Test intermediate CA
        Subject Public Key Info:
            Public Key Algorithm: rsaEncryption
            RSA Public Key: (2048 bit)
                Modulus (2048 bit):
                    00:ca:0a:cb:c7:e3:8d:05:87:73:4b:a2:fc:31:a3:
                    87:21:2a:d6:0f:83:d0:3d:c2:d8:d2:77:62:28:05:
                    fe:06:ad:b9:c5:e9:97:87:b3:90:f2:e5:13:45:47:
                    b0:9e:8b:bd:1b:7f:f9:35:7f:25:f6:bc:5d:c1:dc:
                    6c:42:49:56:70:69:d7:55:a0:75:e0:68:7a:c8:8d:
                    51:07:15:66:3d:30:3f:20:bb:e6:20:df:d0:5b:f1:
                    4b:fd:0a:3f:d7:88:01:20:4f:21:f7:84:61:36:e5:
                    ca:63:c5:e8:d8:50:a5:a0:43:f5:a7:4c:f7:89:9b:
                    2b:40:0e:bf:78:6c:33:85:87:73:78:1a:bc:2f:e2:
                    a8:ae:81:1f:89:e7:a0:88:96:d5:b5:bf:9a:68:d2:
                    44:42:fa:af:f5:d9:82:93:97:c7:df:a6:22:11:16:
                    90:06:14:0f:fb:84:a1:75:ba:2a:2b:ba:5b:4f:cf:
                    f0:21:81:9f:66:a7:88:70:64:5c:27:96:b4:9a:e1:
                    53:a3:e5:25:0b:60:fa:48:05:6b:b1:73:ee:94:f2:
                    9b:be:8b:01:f6:14:0c:3c:a2:28:01:64:6c:81:86:
                    25:ac:0d:e8:df:37:3c:2c:a9:42:a3:b9:42:19:95:
                    a9:2f:aa:35:0c:13:4f:e2:1a:b3:6e:dc:4d:c6:28:
                    09:6f
                Exponent: 65537 (0x10001)
        X509v3 extensions:
            X509v3 Basic Constraints: critical
                CA:TRUE
            X509v3 Subject Key Identifier: 
                48:6A:51:0C:3A:1F:20:7F:BD:4C:6B:0A:11:1F:A4:16:84:FB:83:C5
            X509v3 Key Usage: critical
                Certificate Sign, CRL Sign
    Signature Algorithm: sha1WithRSAEncryption
        3a:f6:e3:fc:14:01:a3:89:91:84:7b:cb:50:e5:64:0a:a4:40:
        d6:ad:40:26:53:29:28:c3:17:3b:12:42:8a:e8:bf:78:4a:77:
        d2:65:08:0e:50:75:c9:fd:9e:13:de:f0:95:44:35:4a:98:50:
        f6:ce:24:6b:e1:8c:a4:56:04:3e:4c:c7:f2:a8:07:bb:94:64:
        ec:63:cb:e9:0d:a0:96:d8:d0:25:d5:22:cc:c7:a3:79:31:23:
        24:8a:24:9c:0c:a2:6c:05:a9:49:80:07:21:4f:f4:84:0f:34:
        9e:64:15:ed:3b:b9:ae:fc:3f:d8:06:92:b7:01:56:99:1f:91:
        a6:13:06:11:9e:5b:66:71:30:ca:d2:44:6d:6f:8b:98:75:57:
        62:01:3b:47:aa:3e:ac:ea:97:00:24:5e:95:44:39:c3:df:cd:
        f3:61:22:74:3f:64:31:11:31:b7:6e:a6:36:90:ee:9e:07:ca:
        b9:81:e4:c7:fe:a9:ed:16:4f:f2:bc:14:1e:ef:79:44:23:33:
        42:e3:ab:eb:71:5e:ef:14:43:f8:29:48:7a:b4:40:80:6e:b5:
        c0:de:d4:db:42:01:0f:9f:88:43:72:7e:76:01:72:a3:25:c1:
        2f:47:59:7e:a0:c8:e0:06:98:e0:47:9b:e9:98:55:5f:92:3e:
        7d:41:79:6a
-----BEGIN CERTIFICATE-----
MIIDBjCCAe6gAwIBAgICAO4wDQYJKoZIhvcNAQEFBQAwIDEeMBwGA1UEAwwVMjA0
OCBSU0EgVGVzdCBSb290IENBMB4XDTExMTIxMjIyNDc1M1oXDTIxMTIwOTIyNDc1
M1owKDEmMCQGA1UEAwwdMjA0OCByc2EgVGVzdCBpbnRlcm1lZGlhdGUgQ0EwggEi
MA0GCSqGSIb3DQEBAQUAA4IBDwAwggEKAoIBAQDKCsvH440Fh3NLovwxo4chKtYP
g9A9wtjSd2IoBf4GrbnF6ZeHs5Dy5RNFR7Cei70bf/k1fyX2vF3B3GxCSVZwaddV
oHXgaHrIjVEHFWY9MD8gu+Yg39Bb8Uv9Cj/XiAEgTyH3hGE25cpjxejYUKWgQ/Wn
TPeJmytADr94bDOFh3N4Grwv4qiugR+J56CIltW1v5po0kRC+q/12YKTl8ffpiIR
FpAGFA/7hKF1uiorultPz/AhgZ9mp4hwZFwnlrSa4VOj5SULYPpIBWuxc+6U8pu+
iwH2FAw8oigBZGyBhiWsDejfNzwsqUKjuUIZlakvqjUME0/iGrNu3E3GKAlvAgMB
AAGjQjBAMA8GA1UdEwEB/wQFMAMBAf8wHQYDVR0OBBYEFEhqUQw6HyB/vUxrChEf
pBaE+4PFMA4GA1UdDwEB/wQEAwIBBjANBgkqhkiG9w0BAQUFAAOCAQEAOvbj/BQB
o4mRhHvLUOVkCqRA1q1AJlMpKMMXOxJCiui/eEp30mUIDlB1yf2eE97wlUQ1SphQ
9s4ka+GMpFYEPkzH8qgHu5Rk7GPL6Q2gltjQJdUizMejeTEjJIoknAyibAWpSYAH
IU/0hA80nmQV7Tu5rvw/2AaStwFWmR+RphMGEZ5bZnEwytJEbW+LmHVXYgE7R6o+
rOqXACRelUQ5w9/N82EidD9kMRExt26mNpDungfKuYHkx/6p7RZP8rwUHu95RCMz
QuOr63Fe7xRD+ClIerRAgG61wN7U20IBD5+IQ3J+dgFyoyXBL0dZfqDI4AaY4Eeb
6ZhVX5I+fUF5ag==
-----END CERTIFICATE-----
