Certificate:
    Data:
        Version: 1 (0x0)
        Serial Number: 238 (0xee)
        Signature Algorithm: sha1WithRSAEncryption
        Issuer: CN=1024 rsa Test intermediate CA
        Validity
            Not Before: Dec 12 22:47:54 2011 GMT
            Not After : Dec  9 22:47:54 2021 GMT
        Subject: C=US, ST=California, L=Mountain View, O=Test CA, CN=127.0.0.1
        Subject Public Key Info:
            Public Key Algorithm: rsaEncryption
            RSA Public Key: (2048 bit)
                Modulus (2048 bit):
                    00:ae:52:d9:c5:51:d2:0f:bf:ee:b1:7c:a0:4e:c7:
                    a3:b5:e5:bf:72:f1:53:d5:dc:9e:2e:0b:72:5e:06:
                    77:71:ee:0d:be:93:9b:b2:77:d4:b6:f8:e2:f9:3c:
                    e1:0e:6a:7a:35:4f:74:df:f0:b9:f6:b1:85:dd:ef:
                    13:0c:67:df:25:eb:ee:21:70:e5:39:e9:61:5f:ad:
                    e7:42:17:69:a4:dd:2b:47:99:33:71:63:3e:0d:6a:
                    36:97:01:4b:a2:e8:32:41:a5:87:91:af:f8:3e:e8:
                    8c:e2:f1:86:8f:0f:7b:98:30:56:55:75:8b:82:75:
                    a2:ef:26:da:5b:83:12:5f:ee:92:08:cc:a0:64:30:
                    9d:56:30:9c:64:79:34:a0:09:a0:c5:e0:47:a1:89:
                    e7:d3:43:b7:b4:13:26:bc:a2:50:75:07:9f:98:67:
                    22:ba:e9:00:da:96:ee:2c:2a:d9:b5:2f:7f:7f:70:
                    3f:26:d7:45:28:eb:90:de:f7:37:89:c7:9d:a2:06:
                    81:30:7f:c2:cf:8f:4c:3d:c4:43:48:6d:5d:2a:c4:
                    e6:c5:5a:b4:54:55:e0:87:65:67:24:f8:e1:af:c0:
                    5e:e4:99:0d:55:c8:8a:d8:73:3a:9c:b3:3d:91:51:
                    b8:4e:16:d0:ca:36:92:01:4f:b9:a2:d6:da:39:8d:
                    4e:71
                Exponent: 65537 (0x10001)
        X509v3 extensions:
            X509v3 Subject Alternative Name: 
                IP Address:127.0.0.1
    Signature Algorithm: sha1WithRSAEncryption
        00:05:e5:a4:4b:3d:15:1d:26:0f:42:2c:69:ce:b1:c4:fc:33:
        07:d9:50:66:25:57:2f:57:e9:7f:9e:dd:df:bf:74:2e:c1:49:
        f5:d3:3c:17:0b:80:86:9f:11:a5:95:8d:88:f3:43:ce:68:04:
        96:4a:59:05:4a:3b:f8:df:f1:e1:e3:48:ae:ab:f5:a9:9d:ce:
        04:a5:9b:90:f5:9d:f4:c2:49:6b:e4:34:2b:91:85:2a:ae:c1:
        7b:b8:3d:6d:27:0e:ad:24:0a:33:31:dd:b9:cd:00:04:e7:8d:
        39:34:3a:3c:fc:4d:a8:2d:06:13:71:0e:03:29:31:c4:25:5f:
        cd:0c
-----BEGIN CERTIFICATE-----
MIICkTCCAfoCAgDuMA0GCSqGSIb3DQEBBQUAMCgxJjAkBgNVBAMMHTEwMjQgcnNh
IFRlc3QgaW50ZXJtZWRpYXRlIENBMB4XDTExMTIxMjIyNDc1NFoXDTIxMTIwOTIy
NDc1NFowYDELMAkGA1UEBhMCVVMxEzARBgNVBAgMCkNhbGlmb3JuaWExFjAUBgNV
BAcMDU1vdW50YWluIFZpZXcxEDAOBgNVBAoMB1Rlc3QgQ0ExEjAQBgNVBAMMCTEy
Ny4wLjAuMTCCASIwDQYJKoZIhvcNAQEBBQADggEPADCCAQoCggEBAK5S2cVR0g+/
7rF8oE7Ho7Xlv3LxU9Xcni4Lcl4Gd3HuDb6Tm7J31Lb44vk84Q5qejVPdN/wufax
hd3vEwxn3yXr7iFw5TnpYV+t50IXaaTdK0eZM3FjPg1qNpcBS6LoMkGlh5Gv+D7o
jOLxho8Pe5gwVlV1i4J1ou8m2luDEl/ukgjMoGQwnVYwnGR5NKAJoMXgR6GJ59ND
t7QTJryiUHUHn5hnIrrpANqW7iwq2bUvf39wPybXRSjrkN73N4nHnaIGgTB/ws+P
TD3EQ0htXSrE5sVatFRV4IdlZyT44a/AXuSZDVXIithzOpyzPZFRuE4W0Mo2kgFP
uaLW2jmNTnECAwEAAaMTMBEwDwYDVR0RBAgwBocEfwAAATANBgkqhkiG9w0BAQUF
AAOBgQAABeWkSz0VHSYPQixpzrHE/DMH2VBmJVcvV+l/nt3fv3QuwUn10zwXC4CG
nxGllY2I80POaASWSlkFSjv43/Hh40iuq/Wpnc4EpZuQ9Z30wklr5DQrkYUqrsF7
uD1tJw6tJAozMd25zQAE5405NDo8/E2oLQYTcQ4DKTHEJV/NDA==
-----END CERTIFICATE-----
