Certificate:
    Data:
        Version: 1 (0x0)
        Serial Number: 236 (0xec)
        Signature Algorithm: sha1WithRSAEncryption
        Issuer: CN=768 rsa Test intermediate CA
        Validity
            Not Before: Dec 12 22:47:53 2011 GMT
            Not After : Dec  9 22:47:53 2021 GMT
        Subject: C=US, ST=California, L=Mountain View, O=Test CA, CN=127.0.0.1
        Subject Public Key Info:
            Public Key Algorithm: rsaEncryption
            RSA Public Key: (768 bit)
                Modulus (768 bit):
                    00:a2:72:21:2e:6e:fa:d0:4e:6c:13:b8:7c:c4:e4:
                    7b:c8:e9:ab:d3:b8:ce:f5:9f:f6:c2:25:39:08:c4:
                    a0:c8:a9:30:43:d4:e3:fa:f1:23:57:9a:93:51:ec:
                    00:7d:a1:85:22:2d:cf:75:b7:c4:60:f7:e0:e9:6d:
                    ac:45:e5:eb:15:a5:27:5c:f6:a9:3d:87:7b:82:dc:
                    5a:39:65:03:8b:ee:32:55:f7:2a:52:fa:a8:07:5e:
                    31:de:d7:02:74:bc:01
                Exponent: 65537 (0x10001)
        X509v3 extensions:
            X509v3 Subject Alternative Name: 
                IP Address:127.0.0.1
    Signature Algorithm: sha1WithRSAEncryption
        70:6a:2e:12:b8:3e:49:6a:f4:5b:c1:57:54:b8:fd:5b:0a:20:
        d1:c7:71:35:2f:61:3a:64:25:9f:9f:f2:88:d0:10:f6:08:a5:
        0f:19:b1:ba:ee:a2:21:ff:da:ca:d1:1e:41:54:8a:e4:c2:4b:
        53:aa:dc:5f:46:aa:66:13:6f:3e:65:c5:f3:05:ea:a3:7c:fc:
        e9:89:b3:9a:8d:c1:e9:98:61:33:1c:5e:64:e3:aa:e2:25:03:
        fb:70:58:9b:81:99
-----BEGIN CERTIFICATE-----
MIIBxzCCAVECAgDsMA0GCSqGSIb3DQEBBQUAMCcxJTAjBgNVBAMMHDc2OCByc2Eg
VGVzdCBpbnRlcm1lZGlhdGUgQ0EwHhcNMTExMjEyMjI0NzUzWhcNMjExMjA5MjI0
NzUzWjBgMQswCQYDVQQGEwJVUzETMBEGA1UECAwKQ2FsaWZvcm5pYTEWMBQGA1UE
BwwNTW91bnRhaW4gVmlldzEQMA4GA1UECgwHVGVzdCBDQTESMBAGA1UEAwwJMTI3
LjAuMC4xMHwwDQYJKoZIhvcNAQEBBQADawAwaAJhAKJyIS5u+tBObBO4fMTke8jp
q9O4zvWf9sIlOQjEoMipMEPU4/rxI1eak1HsAH2hhSItz3W3xGD34OltrEXl6xWl
J1z2qT2He4LcWjllA4vuMlX3KlL6qAdeMd7XAnS8AQIDAQABoxMwETAPBgNVHREE
CDAGhwR/AAABMA0GCSqGSIb3DQEBBQUAA2EAcGouErg+SWr0W8FXVLj9Wwog0cdx
NS9hOmQln5/yiNAQ9gilDxmxuu6iIf/aytEeQVSK5MJLU6rcX0aqZhNvPmXF8wXq
o3z86Ymzmo3B6ZhhMxxeZOOq4iUD+3BYm4GZ
-----END CERTIFICATE-----
