Certificate:
    Data:
        Version: 1 (0x0)
        Serial Number: 236 (0xec)
        Signature Algorithm: ecdsa-with-SHA1
        Issuer: CN=prime256v1 ecdsa Test intermediate CA
        Validity
            Not Before: Dec 12 22:47:53 2011 GMT
            Not After : Dec  9 22:47:53 2021 GMT
        Subject: C=US, ST=California, L=Mountain View, O=Test CA, CN=127.0.0.1
        Subject Public Key Info:
            Public Key Algorithm: rsaEncryption
            RSA Public Key: (768 bit)
                Modulus (768 bit):
                    00:9f:be:cd:ca:eb:45:e5:2a:77:c6:d2:82:b8:22:
                    9b:44:d5:d8:04:34:af:8e:35:ba:83:d2:fa:0d:64:
                    e4:1c:4e:1b:34:8b:db:a2:1b:67:36:fb:8d:ac:3b:
                    52:71:aa:77:63:e7:a5:3b:a5:1c:ae:7a:7f:1e:8c:
                    98:ac:e8:19:67:ca:a0:fc:fb:df:57:3c:6c:b1:85:
                    bb:7c:a6:15:df:13:82:34:e7:84:7b:75:c7:69:ed:
                    f3:8f:77:63:af:6f:29
                Exponent: 65537 (0x10001)
        X509v3 extensions:
            X509v3 Subject Alternative Name: 
                IP Address:127.0.0.1
    Signature Algorithm: ecdsa-with-SHA1
        30:45:02:20:76:9c:1b:cf:23:dd:36:94:7a:8e:76:80:b8:4a:
        f1:c9:d0:d0:ca:5c:81:57:e3:cf:21:43:63:72:03:56:f8:5d:
        02:21:00:fe:01:ba:f2:5e:ad:ca:2f:56:2f:b3:6d:82:cd:72:
        9c:22:2d:0e:10:04:e0:55:e0:d3:c7:4b:a1:60:8d:2c:2b
-----BEGIN CERTIFICATE-----
MIIBrzCCAVYCAgDsMAkGByqGSM49BAEwMDEuMCwGA1UEAwwlcHJpbWUyNTZ2MSBl
Y2RzYSBUZXN0IGludGVybWVkaWF0ZSBDQTAeFw0xMTEyMTIyMjQ3NTNaFw0yMTEy
MDkyMjQ3NTNaMGAxCzAJBgNVBAYTAlVTMRMwEQYDVQQIDApDYWxpZm9ybmlhMRYw
FAYDVQQHDA1Nb3VudGFpbiBWaWV3MRAwDgYDVQQKDAdUZXN0IENBMRIwEAYDVQQD
DAkxMjcuMC4wLjEwfDANBgkqhkiG9w0BAQEFAANrADBoAmEAn77NyutF5Sp3xtKC
uCKbRNXYBDSvjjW6g9L6DWTkHE4bNIvbohtnNvuNrDtScap3Y+elO6Ucrnp/HoyY
rOgZZ8qg/PvfVzxssYW7fKYV3xOCNOeEe3XHae3zj3djr28pAgMBAAGjEzARMA8G
A1UdEQQIMAaHBH8AAAEwCQYHKoZIzj0EAQNIADBFAiB2nBvPI902lHqOdoC4SvHJ
0NDKXIFX488hQ2NyA1b4XQIhAP4BuvJercovVi+zbYLNcpwiLQ4QBOBV4NPHS6Fg
jSwr
-----END CERTIFICATE-----
