Certificate:
    Data:
        Version: 3 (0x2)
        Serial Number: 236 (0xec)
        Signature Algorithm: sha1WithRSAEncryption
        Issuer: CN=2048 RSA Test Root CA
        Validity
            Not Before: Dec 12 22:47:53 2011 GMT
            Not After : Dec  9 22:47:53 2021 GMT
        Subject: CN=768 rsa Test intermediate CA
        Subject Public Key Info:
            Public Key Algorithm: rsaEncryption
            RSA Public Key: (768 bit)
                Modulus (768 bit):
                    00:cc:6a:db:92:b7:bf:b3:fa:c0:b3:54:8e:3d:26:
                    08:e6:a3:d0:ca:e2:75:86:25:27:0d:f4:67:e4:9f:
                    90:0e:2f:4d:d4:15:af:c9:53:1c:44:f4:2e:90:6c:
                    82:9b:b6:d2:59:0d:89:6a:f8:4a:c4:37:39:4f:c9:
                    08:f1:c1:ed:e4:51:74:0c:b7:a6:2a:cf:ba:f5:47:
                    96:6c:09:ac:d3:e4:3c:fe:ec:6f:63:60:ad:7d:ee:
                    33:d1:cd:4f:15:f4:a7
                Exponent: 65537 (0x10001)
        X509v3 extensions:
            X509v3 Basic Constraints: critical
                CA:TRUE
            X509v3 Subject Key Identifier: 
                D5:89:AE:A8:B3:CF:6A:F1:0C:AF:E0:11:2F:C8:59:12:A6:31:E9:3E
            X509v3 Key Usage: critical
                Certificate Sign, CRL Sign
    Signature Algorithm: sha1WithRSAEncryption
        1f:a3:25:77:24:2e:b9:92:5b:06:4c:fe:31:a8:fd:86:23:97:
        03:ab:8f:50:7f:44:0b:6a:77:ff:0d:c8:0e:d2:98:e4:26:9c:
        cc:26:ed:5f:1f:9c:40:0e:9e:e5:8d:1d:7f:7c:cb:2e:64:fc:
        8a:81:a6:d9:9d:05:4d:a1:45:76:d2:78:2a:4e:d9:5e:8c:59:
        b3:cd:be:3b:ae:09:8c:e2:a6:a0:0e:c5:28:93:b1:bb:c1:76:
        c1:f3:d7:d7:22:e3:25:d4:1c:cc:ae:4a:6e:1b:ae:98:3b:c5:
        bb:dc:92:87:8b:a3:92:91:b2:23:84:1f:7f:cb:f9:85:42:d2:
        85:ff:a7:90:69:e0:26:ae:3f:fd:cb:7f:a6:e9:b9:3f:7f:54:
        3f:c7:b3:98:15:e3:22:da:c3:e7:ab:d1:b8:00:62:a2:26:9f:
        59:7f:51:b5:c5:10:5a:0e:a4:be:bd:22:26:5b:fc:d6:2d:32:
        13:04:ae:28:32:ac:e5:10:7a:81:79:a9:84:ca:67:6c:74:31:
        64:07:4e:3e:4f:6f:c4:e9:90:7f:a8:f5:b4:f9:65:4d:35:fa:
        ab:92:1b:2f:b5:49:c7:73:38:3a:c7:92:f0:16:bb:a5:55:b8:
        d9:79:4f:98:4e:6e:2a:4d:88:a3:c4:23:5c:c4:3f:ee:f7:26:
        56:38:1e:11
-----BEGIN CERTIFICATE-----
MIICXTCCAUWgAwIBAgICAOwwDQYJKoZIhvcNAQEFBQAwIDEeMBwGA1UEAwwVMjA0
OCBSU0EgVGVzdCBSb290IENBMB4XDTExMTIxMjIyNDc1M1oXDTIxMTIwOTIyNDc1
M1owJzElMCMGA1UEAwwcNzY4IHJzYSBUZXN0IGludGVybWVkaWF0ZSBDQTB8MA0G
CSqGSIb3DQEBAQUAA2sAMGgCYQDMatuSt7+z+sCzVI49Jgjmo9DK4nWGJScN9Gfk
n5AOL03UFa/JUxxE9C6QbIKbttJZDYlq+ErENzlPyQjxwe3kUXQMt6Yqz7r1R5Zs
CazT5Dz+7G9jYK197jPRzU8V9KcCAwEAAaNCMEAwDwYDVR0TAQH/BAUwAwEB/zAd
BgNVHQ4EFgQU1YmuqLPPavEMr+ARL8hZEqYx6T4wDgYDVR0PAQH/BAQDAgEGMA0G
CSqGSIb3DQEBBQUAA4IBAQAfoyV3JC65klsGTP4xqP2GI5cDq49Qf0QLanf/DcgO
0pjkJpzMJu1fH5xADp7ljR1/fMsuZPyKgabZnQVNoUV20ngqTtlejFmzzb47rgmM
4qagDsUok7G7wXbB89fXIuMl1BzMrkpuG66YO8W73JKHi6OSkbIjhB9/y/mFQtKF
/6eQaeAmrj/9y3+m6bk/f1Q/x7OYFeMi2sPnq9G4AGKiJp9Zf1G1xRBaDqS+vSIm
W/zWLTITBK4oMqzlEHqBeamEymdsdDFkB04+T2/E6ZB/qPW0+WVNNfqrkhsvtUnH
czg6x5LwFrulVbjZeU+YTm4qTYijxCNcxD/u9yZWOB4R
-----END CERTIFICATE-----
