Certificate:
    Data:
        Version: 1 (0x0)
        Serial Number: 236 (0xec)
        Signature Algorithm: sha1WithRSAEncryption
        Issuer: CN=2048 rsa Test intermediate CA
        Validity
            Not Before: Dec 12 22:47:53 2011 GMT
            Not After : Dec  9 22:47:53 2021 GMT
        Subject: C=US, ST=California, L=Mountain View, O=Test CA, CN=127.0.0.1
        Subject Public Key Info:
            Public Key Algorithm: rsaEncryption
            RSA Public Key: (768 bit)
                Modulus (768 bit):
                    00:d8:33:27:fc:e4:01:aa:68:42:d1:6d:26:ae:8f:
                    e5:9e:85:a7:af:98:86:9a:bc:ad:a9:c6:81:75:fb:
                    2d:fc:ce:84:16:bc:02:d7:93:37:98:f1:c7:9e:b5:
                    5a:ce:45:92:2d:0f:fd:79:07:16:36:ef:63:e2:7b:
                    81:02:1f:ee:ea:2b:68:66:75:d0:51:29:ce:77:cd:
                    db:06:29:e2:83:41:86:90:98:3a:a3:21:b6:82:ad:
                    0a:b7:c8:04:fd:b5:2f
                Exponent: 65537 (0x10001)
        X509v3 extensions:
            X509v3 Subject Alternative Name: 
                IP Address:127.0.0.1
    Signature Algorithm: sha1WithRSAEncryption
        1c:93:4c:b9:cf:c2:3f:7e:b7:09:1c:d9:14:ca:36:f7:a6:93:
        c7:99:09:77:ce:0e:a9:1b:ca:19:90:20:2f:3b:ca:62:5c:3d:
        28:75:b1:f4:be:99:3b:2d:d6:bf:df:8a:4d:81:7d:9c:a2:16:
        7d:93:73:a1:61:cb:13:63:88:94:20:fb:87:a4:4b:c8:d5:5b:
        77:07:7a:3a:d8:c8:fb:f1:76:2d:68:5b:7b:69:37:74:4a:96:
        32:39:5d:99:18:10:80:6a:ee:43:6d:72:74:69:85:1a:9f:ee:
        4d:f7:b0:cd:b9:0b:c3:1b:b0:76:3a:53:6f:9b:b4:f6:8c:af:
        f7:b7:33:b2:d6:18:94:3b:ae:db:22:72:0b:d7:ea:d3:3d:6d:
        db:50:78:e8:60:2f:04:aa:f3:68:23:43:fe:83:b7:be:39:54:
        0a:06:df:b9:0f:13:56:0b:ba:cf:dd:f0:ca:c1:d6:f6:a7:15:
        e9:c8:20:fe:a0:46:86:2a:2b:26:cd:0b:9c:0c:0d:a3:84:3a:
        bf:ae:60:65:88:2f:e5:6d:d6:e5:d7:e0:75:3d:00:73:65:ae:
        dd:f1:2b:1d:ff:5c:9d:58:db:07:4b:c7:3a:78:06:6a:d1:73:
        30:d8:bf:cb:9b:1d:e3:fc:f8:42:49:08:4b:e8:f9:67:c6:fd:
        f9:34:54:a1
-----BEGIN CERTIFICATE-----
MIICajCCAVICAgDsMA0GCSqGSIb3DQEBBQUAMCgxJjAkBgNVBAMMHTIwNDggcnNh
IFRlc3QgaW50ZXJtZWRpYXRlIENBMB4XDTExMTIxMjIyNDc1M1oXDTIxMTIwOTIy
NDc1M1owYDELMAkGA1UEBhMCVVMxEzARBgNVBAgMCkNhbGlmb3JuaWExFjAUBgNV
BAcMDU1vdW50YWluIFZpZXcxEDAOBgNVBAoMB1Rlc3QgQ0ExEjAQBgNVBAMMCTEy
Ny4wLjAuMTB8MA0GCSqGSIb3DQEBAQUAA2sAMGgCYQDYMyf85AGqaELRbSauj+We
haevmIaavK2pxoF1+y38zoQWvALXkzeY8ceetVrORZItD/15BxY272Pie4ECH+7q
K2hmddBRKc53zdsGKeKDQYaQmDqjIbaCrQq3yAT9tS8CAwEAAaMTMBEwDwYDVR0R
BAgwBocEfwAAATANBgkqhkiG9w0BAQUFAAOCAQEAHJNMuc/CP363CRzZFMo296aT
x5kJd84OqRvKGZAgLzvKYlw9KHWx9L6ZOy3Wv9+KTYF9nKIWfZNzoWHLE2OIlCD7
h6RLyNVbdwd6OtjI+/F2LWhbe2k3dEqWMjldmRgQgGruQ21ydGmFGp/uTfewzbkL
wxuwdjpTb5u09oyv97czstYYlDuu2yJyC9fq0z1t21B46GAvBKrzaCND/oO3vjlU
CgbfuQ8TVgu6z93wysHW9qcV6cgg/qBGhiorJs0LnAwNo4Q6v65gZYgv5W3W5dfg
dT0Ac2Wu3fErHf9cnVjbB0vHOngGatFzMNi/y5sd4/z4QkkIS+j5Z8b9+TRUoQ==
-----END CERTIFICATE-----
