Certificate:
    Data:
        Version: 1 (0x0)
        Serial Number: 236 (0xec)
        Signature Algorithm: sha1WithRSAEncryption
        Issuer: CN=1024 rsa Test intermediate CA
        Validity
            Not Before: Dec 12 22:47:53 2011 GMT
            Not After : Dec  9 22:47:53 2021 GMT
        Subject: C=US, ST=California, L=Mountain View, O=Test CA, CN=127.0.0.1
        Subject Public Key Info:
            Public Key Algorithm: rsaEncryption
            RSA Public Key: (768 bit)
                Modulus (768 bit):
                    00:99:15:16:6e:0f:58:af:87:bc:b8:83:ae:3a:57:
                    85:f9:9c:70:f8:b7:9b:e2:17:c6:5e:4b:c2:4b:e3:
                    94:ba:c3:5d:85:91:2d:cb:73:6d:ee:9b:76:9f:b1:
                    ce:34:cc:9f:73:75:00:1f:d7:cf:66:e9:a4:cc:8b:
                    93:2e:b6:15:15:16:c0:7f:eb:70:00:ed:9c:f1:19:
                    d3:8e:38:60:bb:39:68:38:68:5b:06:67:84:13:7b:
                    5a:69:71:82:a7:90:99
                Exponent: 65537 (0x10001)
        X509v3 extensions:
            X509v3 Subject Alternative Name: 
                IP Address:127.0.0.1
    Signature Algorithm: sha1WithRSAEncryption
        98:23:c2:af:db:c3:76:a7:5d:c2:29:ae:03:be:30:6d:aa:c9:
        ef:01:04:a8:9d:45:ad:45:4b:f1:7f:6e:bb:7d:ee:41:d6:a6:
        da:65:e1:07:28:05:fd:35:ca:89:25:a4:c3:3a:49:8e:d5:2f:
        fe:95:8a:26:a7:82:5b:ea:b7:c6:85:bf:3f:03:1c:d5:90:e4:
        40:95:12:3c:1a:8f:ef:1a:ef:f3:ac:4b:05:21:63:4a:d8:4f:
        5f:4a:9a:b2:6e:b2:8b:d5:3a:93:0a:c9:84:c0:3e:9a:ac:b7:
        b3:a6:36:fb:fe:6a:9a:5a:10:fc:be:40:09:ac:2b:d6:93:30:
        b3:50
-----BEGIN CERTIFICATE-----
MIIB6TCCAVICAgDsMA0GCSqGSIb3DQEBBQUAMCgxJjAkBgNVBAMMHTEwMjQgcnNh
IFRlc3QgaW50ZXJtZWRpYXRlIENBMB4XDTExMTIxMjIyNDc1M1oXDTIxMTIwOTIy
NDc1M1owYDELMAkGA1UEBhMCVVMxEzARBgNVBAgMCkNhbGlmb3JuaWExFjAUBgNV
BAcMDU1vdW50YWluIFZpZXcxEDAOBgNVBAoMB1Rlc3QgQ0ExEjAQBgNVBAMMCTEy
Ny4wLjAuMTB8MA0GCSqGSIb3DQEBAQUAA2sAMGgCYQCZFRZuD1ivh7y4g646V4X5
nHD4t5viF8ZeS8JL45S6w12FkS3Lc23um3afsc40zJ9zdQAf189m6aTMi5MuthUV
FsB/63AA7ZzxGdOOOGC7OWg4aFsGZ4QTe1ppcYKnkJkCAwEAAaMTMBEwDwYDVR0R
BAgwBocEfwAAATANBgkqhkiG9w0BAQUFAAOBgQCYI8Kv28N2p13CKa4DvjBtqsnv
AQSonUWtRUvxf267fe5B1qbaZeEHKAX9NcqJJaTDOkmO1S/+lYomp4Jb6rfGhb8/
AxzVkORAlRI8Go/vGu/zrEsFIWNK2E9fSpqybrKL1TqTCsmEwD6arLezpjb7/mqa
WhD8vkAJrCvWkzCzUA==
-----END CERTIFICATE-----
