Certificate:
    Data:
        Version: 3 (0x2)
        Serial Number: 10573340048066023812 (0x92bc0cc0f6631184)
    Signature Algorithm: sha1WithRSAEncryption
        Issuer: CN=AIA Test Root CA
        Validity
            Not Before: May 15 22:24:35 2013 GMT
            Not After : May 13 22:24:35 2023 GMT
        Subject: CN=AIA Test Root CA
        Subject Public Key Info:
            Public Key Algorithm: rsaEncryption
                Public-Key: (2048 bit)
                Modulus:
                    00:ac:f7:c4:ab:87:d2:d3:e4:38:b7:22:a7:f5:ba:
                    62:51:a2:bc:8c:6d:e9:15:ce:88:e4:94:26:38:b2:
                    84:f6:aa:2b:44:af:c9:b0:6d:20:52:47:5d:c5:d4:
                    57:54:39:37:77:e4:5a:95:83:eb:d9:ec:fd:20:b0:
                    3d:50:b2:c8:3c:9f:09:74:fb:3a:59:da:8b:86:f9:
                    98:87:85:b3:f7:04:bc:2c:f0:35:3d:93:2b:a9:d5:
                    89:6d:18:1d:5f:29:bd:f5:69:7f:bc:91:34:08:96:
                    d4:a5:45:5c:dc:60:79:8a:55:42:fe:12:23:6a:2e:
                    37:ce:7c:5f:d3:0f:7c:a4:6c:13:62:59:79:e8:24:
                    10:e1:d7:2d:e6:20:bd:53:f3:bd:43:ea:2d:3f:7f:
                    5f:05:9c:e7:e4:8d:9d:cd:0d:99:29:80:9e:22:c5:
                    d7:e7:55:cb:3c:09:25:31:61:cf:9b:96:e5:01:e5:
                    4e:ce:39:c2:37:aa:8a:a2:c0:1c:20:38:7c:f0:90:
                    b8:16:83:ec:0a:0f:2b:8c:5a:69:db:46:ff:74:50:
                    cb:db:c6:1c:bc:05:bc:91:84:47:e0:ce:57:5e:cd:
                    49:26:55:87:bb:45:4b:23:9d:39:ff:5b:d5:47:93:
                    47:87:6d:78:7a:81:79:7d:66:55:6a:25:0b:3b:d5:
                    a5:05
                Exponent: 65537 (0x10001)
        X509v3 extensions:
            X509v3 Basic Constraints: critical
                CA:TRUE
            X509v3 Key Usage: critical
                Certificate Sign, CRL Sign
    Signature Algorithm: sha1WithRSAEncryption
         79:19:7e:16:33:cc:d4:73:92:30:6d:66:17:31:5a:65:b7:63:
         ec:07:f0:d5:6d:dc:0d:10:57:5b:97:a0:ae:ad:b9:43:ab:7a:
         07:21:ac:04:be:8b:21:32:20:ed:24:42:af:31:7c:24:43:83:
         47:44:a2:68:21:d6:6d:d2:a1:cb:b9:23:15:47:32:f6:6a:6f:
         65:09:21:41:aa:99:a2:a1:68:45:3a:b9:9c:fa:cd:3a:dd:bf:
         eb:4e:82:74:75:18:99:c6:58:2a:5b:33:aa:bf:cb:8b:31:0c:
         36:ef:2e:2c:a7:b3:8e:98:ce:b4:86:85:06:9c:74:36:9e:30:
         25:4d:fb:e0:20:e1:eb:71:71:82:c3:5c:ed:f0:ed:1f:8d:21:
         be:9c:6f:b0:38:29:32:3b:c1:06:ae:f9:46:f0:7f:7f:21:37:
         31:67:32:97:7d:77:3a:7a:99:80:88:9b:8d:a7:6d:a9:f0:ef:
         8b:5e:73:01:d5:2b:c0:82:db:7b:24:0b:7a:1b:f0:c7:8b:2b:
         bf:b2:ef:b9:ff:d0:a4:5d:1b:46:ba:00:71:8f:9a:d2:a3:28:
         e5:7d:2c:41:ce:6e:de:1f:9a:af:0b:f8:02:79:88:29:59:ee:
         e2:e1:cc:80:4e:19:1b:00:84:95:26:b9:1c:a2:97:b4:bd:e0:
         f5:b9:c4:04
-----BEGIN CERTIFICATE-----
MIIC3DCCAcSgAwIBAgIJAJK8DMD2YxGEMA0GCSqGSIb3DQEBBQUAMBsxGTAXBgNV
BAMMEEFJQSBUZXN0IFJvb3QgQ0EwHhcNMTMwNTE1MjIyNDM1WhcNMjMwNTEzMjIy
NDM1WjAbMRkwFwYDVQQDDBBBSUEgVGVzdCBSb290IENBMIIBIjANBgkqhkiG9w0B
AQEFAAOCAQ8AMIIBCgKCAQEArPfEq4fS0+Q4tyKn9bpiUaK8jG3pFc6I5JQmOLKE
9qorRK/JsG0gUkddxdRXVDk3d+RalYPr2ez9ILA9ULLIPJ8JdPs6WdqLhvmYh4Wz
9wS8LPA1PZMrqdWJbRgdXym99Wl/vJE0CJbUpUVc3GB5ilVC/hIjai43znxf0w98
pGwTYll56CQQ4dct5iC9U/O9Q+otP39fBZzn5I2dzQ2ZKYCeIsXX51XLPAklMWHP
m5blAeVOzjnCN6qKosAcIDh88JC4FoPsCg8rjFpp20b/dFDL28YcvAW8kYRH4M5X
Xs1JJlWHu0VLI505/1vVR5NHh214eoF5fWZVaiULO9WlBQIDAQABoyMwITAPBgNV
HRMBAf8EBTADAQH/MA4GA1UdDwEB/wQEAwIBBjANBgkqhkiG9w0BAQUFAAOCAQEA
eRl+FjPM1HOSMG1mFzFaZbdj7Afw1W3cDRBXW5egrq25Q6t6ByGsBL6LITIg7SRC
rzF8JEODR0SiaCHWbdKhy7kjFUcy9mpvZQkhQaqZoqFoRTq5nPrNOt2/606CdHUY
mcZYKlszqr/LizEMNu8uLKezjpjOtIaFBpx0Np4wJU374CDh63FxgsNc7fDtH40h
vpxvsDgpMjvBBq75RvB/fyE3MWcyl313OnqZgIibjadtqfDvi15zAdUrwILbeyQL
ehvwx4srv7Lvuf/QpF0bRroAcY+a0qMo5X0sQc5u3h+arwv4AnmIKVnu4uHMgE4Z
GwCElSa5HKKXtL3g9bnEBA==
-----END CERTIFICATE-----
