Certificate:
    Data:
        Version: 3 (0x2)
        Serial Number: 236 (0xec)
    Signature Algorithm: sha1WithRSAEncryption
        Issuer: CN=B CA
        Validity
            Not Before: Apr 22 21:58:52 2013 GMT
            Not After : Apr 20 21:58:52 2023 GMT
        Subject: CN=Client Cert A
        Subject Public Key Info:
            Public Key Algorithm: rsaEncryption
                Public-Key: (2048 bit)
                Modulus:
                    00:bc:0f:a8:25:12:13:d8:e1:74:f4:fe:7e:0c:bf:
                    9f:e2:be:5d:f7:88:44:a2:e6:4f:8f:67:81:43:64:
                    b7:6d:bd:12:79:e6:0e:d8:07:ae:0f:f4:1f:76:00:
                    9c:86:b0:70:54:02:ba:a9:c5:05:2f:29:19:c9:4b:
                    06:bc:65:40:b6:1d:1e:c5:44:91:f0:d6:d2:86:c3:
                    f7:4e:73:b2:92:77:25:ca:4f:d5:9c:2b:a6:2c:f9:
                    f8:f7:fd:1e:1e:bc:d4:db:1e:99:c7:7c:52:cd:be:
                    7c:d3:ee:c7:39:b8:6a:88:d0:24:26:ea:0d:bb:ed:
                    c0:2e:fb:71:df:5d:12:55:1d:36:f8:74:55:2e:33:
                    1a:68:c3:26:fa:87:7b:d6:80:20:45:10:cd:ab:77:
                    f4:b2:3a:6b:2e:a1:7f:7c:a9:17:c1:47:51:b3:e6:
                    3d:67:68:90:df:d8:37:74:2d:02:11:d2:d0:64:96:
                    f4:06:85:23:07:14:55:50:7a:8b:32:26:0f:17:be:
                    9a:53:e1:03:c0:e8:27:ff:06:96:74:5d:29:0c:ab:
                    21:f5:ae:22:3c:2f:27:b8:3b:b6:c5:ba:41:58:8e:
                    e8:5f:ba:56:97:08:36:27:da:a6:f0:cc:27:11:52:
                    fb:9b:e5:92:aa:3d:f1:62:3e:ae:bb:b8:09:52:e6:
                    e5:d3
                Exponent: 65537 (0x10001)
        X509v3 extensions:
            X509v3 Basic Constraints: critical
                CA:FALSE
            X509v3 Extended Key Usage: 
                TLS Web Server Authentication, TLS Web Client Authentication
    Signature Algorithm: sha1WithRSAEncryption
         a5:ec:14:84:d5:27:71:38:e7:f1:5f:38:7f:96:0f:a7:5d:ad:
         9d:bf:5d:f9:eb:66:d5:61:ea:5b:d5:c9:3e:73:a1:62:8a:a5:
         25:60:8f:90:fb:9f:38:2d:1d:42:ec:e7:db:f5:34:fc:4a:57:
         19:eb:29:83:ae:a4:8f:94:2c:9d:c0:dd:df:6c:29:d8:c9:9f:
         ec:07:e7:18:80:8e:3b:92:0a:f1:2e:e7:1f:0b:d5:b7:b9:d9:
         a9:39:cf:46:a3:7a:ec:95:7f:4d:0a:99:ba:e8:ca:a9:4e:ea:
         48:b9:e3:21:ad:6e:20:8d:db:c5:7d:9d:94:69:f0:d0:8e:b3:
         32:39:67:42:7c:22:e4:25:a5:d3:51:0e:65:89:52:90:63:b4:
         bf:c5:8e:2c:79:cc:c5:b7:e5:00:98:5b:f8:f6:01:b1:83:cb:
         ee:a2:cb:ba:4f:c4:a6:8b:1f:fa:fa:4f:43:b7:e9:75:54:43:
         1b:e0:3d:d5:9b:15:6d:3d:c2:31:9f:42:10:be:9f:a1:67:0b:
         f5:4b:ad:a4:8b:cb:ca:3f:be:ad:16:c8:6f:7a:42:33:71:39:
         22:a1:ee:7b:d0:3f:fb:1c:c6:bf:90:17:18:0d:0f:00:18:15:
         4f:2f:4f:7b:fb:26:05:05:e5:de:29:5e:ad:09:55:e6:d6:c5:
         de:27:a6:6c
-----BEGIN CERTIFICATE-----
MIIC0jCCAbqgAwIBAgICAOwwDQYJKoZIhvcNAQEFBQAwDzENMAsGA1UEAwwEQiBD
QTAeFw0xMzA0MjIyMTU4NTJaFw0yMzA0MjAyMTU4NTJaMBgxFjAUBgNVBAMMDUNs
aWVudCBDZXJ0IEEwggEiMA0GCSqGSIb3DQEBAQUAA4IBDwAwggEKAoIBAQC8D6gl
EhPY4XT0/n4Mv5/ivl33iESi5k+PZ4FDZLdtvRJ55g7YB64P9B92AJyGsHBUArqp
xQUvKRnJSwa8ZUC2HR7FRJHw1tKGw/dOc7KSdyXKT9WcK6Ys+fj3/R4evNTbHpnH
fFLNvnzT7sc5uGqI0CQm6g277cAu+3HfXRJVHTb4dFUuMxpowyb6h3vWgCBFEM2r
d/SyOmsuoX98qRfBR1Gz5j1naJDf2Dd0LQIR0tBklvQGhSMHFFVQeosyJg8XvppT
4QPA6Cf/BpZ0XSkMqyH1riI8Lye4O7bFukFYjuhfulaXCDYn2qbwzCcRUvub5ZKq
PfFiPq67uAlS5uXTAgMBAAGjLzAtMAwGA1UdEwEB/wQCMAAwHQYDVR0lBBYwFAYI
KwYBBQUHAwEGCCsGAQUFBwMCMA0GCSqGSIb3DQEBBQUAA4IBAQCl7BSE1SdxOOfx
Xzh/lg+nXa2dv13562bVYepb1ck+c6FiiqUlYI+Q+584LR1C7Ofb9TT8SlcZ6ymD
rqSPlCydwN3fbCnYyZ/sB+cYgI47kgrxLucfC9W3udmpOc9Go3rslX9NCpm66Mqp
TupIueMhrW4gjdvFfZ2UafDQjrMyOWdCfCLkJaXTUQ5liVKQY7S/xY4seczFt+UA
mFv49gGxg8vuosu6T8Smix/6+k9Dt+l1VEMb4D3VmxVtPcIxn0IQvp+hZwv1S62k
i8vKP76tFshvekIzcTkioe570D/7HMa/kBcYDQ8AGBVPL097+yYFBeXeKV6tCVXm
1sXeJ6Zs
-----END CERTIFICATE-----
