Certificate:
    Data:
        Version: 3 (0x2)
        Serial Number: 236 (0xec)
    Signature Algorithm: sha1WithRSAEncryption
        Issuer: CN=C Root CA
        Validity
            Not Before: Apr 22 21:58:52 2013 GMT
            Not After : Apr 20 21:58:52 2023 GMT
        Subject: CN=B CA
        Subject Public Key Info:
            Public Key Algorithm: rsaEncryption
                Public-Key: (2048 bit)
                Modulus:
                    00:ca:2b:37:8c:21:be:73:36:40:67:43:2a:89:9c:
                    3f:43:88:8b:34:8e:3e:34:cd:ee:32:5e:f2:a2:22:
                    f8:d9:7f:c6:96:b7:e1:52:7f:91:3e:81:4a:a9:35:
                    63:03:d7:3c:38:c5:0d:b8:a6:b0:be:b0:c5:b8:b9:
                    6c:34:fc:f2:9a:25:7c:37:cf:04:e6:c4:9b:00:5a:
                    b2:d3:9e:6c:85:97:92:0a:44:08:8d:32:2b:9b:50:
                    9a:e4:bd:61:db:49:d7:40:6b:72:15:6a:a3:75:52:
                    31:65:44:e0:bd:c1:bf:6e:b6:71:71:29:fd:98:67:
                    b9:62:62:d9:7b:a7:cb:4f:93:70:f9:1c:2c:83:42:
                    2a:dc:4b:e8:2d:51:3c:ef:f0:4b:a3:2b:db:7f:6d:
                    73:11:21:55:33:90:7c:94:29:2a:8c:3a:7b:22:b3:
                    9e:30:16:d1:41:64:7c:4d:83:79:5f:8f:c4:ec:21:
                    e4:0c:14:95:1e:ec:d7:d0:f7:d7:44:f5:93:48:01:
                    bf:e9:99:06:7e:2e:d4:e9:87:88:3f:46:f1:7c:c3:
                    07:5a:8b:b7:16:72:dc:35:d4:69:e3:33:68:45:79:
                    1a:35:26:37:08:4e:12:57:02:34:24:45:ec:2f:19:
                    ab:d5:7a:b6:20:db:93:0a:0d:f4:77:1d:27:15:37:
                    54:2b
                Exponent: 65537 (0x10001)
        X509v3 extensions:
            X509v3 Basic Constraints: critical
                CA:TRUE
            X509v3 Key Usage: critical
                Certificate Sign, CRL Sign
    Signature Algorithm: sha1WithRSAEncryption
         93:c0:c7:af:77:e2:52:21:1f:59:b4:d1:df:d7:43:cc:31:73:
         2b:76:3a:d9:ec:e0:ab:1d:e0:8d:7f:e4:16:2d:06:40:d1:c1:
         97:be:65:d0:e6:4b:c3:a3:6a:e9:0c:5b:86:f6:49:eb:e2:f0:
         07:95:ee:37:7f:10:df:ce:2f:5b:4e:70:24:5b:47:1f:f5:d8:
         8e:0a:7c:4d:54:e2:e6:a7:0a:15:c6:16:a4:0f:79:03:22:a3:
         76:23:6d:e6:1e:ce:81:84:39:ec:b8:f7:e8:0a:a2:1f:93:fa:
         60:92:df:35:c2:23:0d:5c:74:70:74:46:fc:b4:47:83:81:ee:
         a6:c7:03:90:26:78:84:1f:3d:c4:39:16:a1:f0:aa:13:9a:be:
         6b:2d:ad:3f:5d:e2:57:45:60:6b:56:2a:e3:00:50:29:bb:41:
         87:ba:c8:21:82:dd:57:68:4f:cd:ea:11:2a:9a:93:c7:c3:af:
         2f:fb:0d:a5:40:59:2a:22:ac:df:98:3d:2a:ea:1e:c5:e8:03:
         c6:0d:b4:2d:10:c6:a0:b5:e8:61:fd:b7:07:82:54:80:68:21:
         05:db:d4:d7:1f:5f:62:93:21:a2:cd:b8:08:f0:06:86:04:93:
         aa:b2:a3:64:4c:2f:47:78:0e:b1:a2:1c:b1:50:72:f4:86:cc:
         07:2a:a6:cb
-----BEGIN CERTIFICATE-----
MIICwjCCAaqgAwIBAgICAOwwDQYJKoZIhvcNAQEFBQAwFDESMBAGA1UEAwwJQyBS
b290IENBMB4XDTEzMDQyMjIxNTg1MloXDTIzMDQyMDIxNTg1MlowDzENMAsGA1UE
AwwEQiBDQTCCASIwDQYJKoZIhvcNAQEBBQADggEPADCCAQoCggEBAMorN4whvnM2
QGdDKomcP0OIizSOPjTN7jJe8qIi+Nl/xpa34VJ/kT6BSqk1YwPXPDjFDbimsL6w
xbi5bDT88polfDfPBObEmwBastOebIWXkgpECI0yK5tQmuS9YdtJ10BrchVqo3VS
MWVE4L3Bv262cXEp/ZhnuWJi2Xuny0+TcPkcLINCKtxL6C1RPO/wS6Mr239tcxEh
VTOQfJQpKow6eyKznjAW0UFkfE2DeV+PxOwh5AwUlR7s19D310T1k0gBv+mZBn4u
1OmHiD9G8XzDB1qLtxZy3DXUaeMzaEV5GjUmNwhOElcCNCRF7C8Zq9V6tiDbkwoN
9HcdJxU3VCsCAwEAAaMjMCEwDwYDVR0TAQH/BAUwAwEB/zAOBgNVHQ8BAf8EBAMC
AQYwDQYJKoZIhvcNAQEFBQADggEBAJPAx6934lIhH1m00d/XQ8wxcyt2Otns4Ksd
4I1/5BYtBkDRwZe+ZdDmS8OjaukMW4b2Sevi8AeV7jd/EN/OL1tOcCRbRx/12I4K
fE1U4uanChXGFqQPeQMio3YjbeYezoGEOey49+gKoh+T+mCS3zXCIw1cdHB0Rvy0
R4OB7qbHA5AmeIQfPcQ5FqHwqhOavmstrT9d4ldFYGtWKuMAUCm7QYe6yCGC3Vdo
T83qESqak8fDry/7DaVAWSoirN+YPSrqHsXoA8YNtC0QxqC16GH9tweCVIBoIQXb
1NcfX2KTIaLNuAjwBoYEk6qyo2RML0d4DrGiHLFQcvSGzAcqpss=
-----END CERTIFICATE-----
