Certificate:
    Data:
        Version: 3 (0x2)
        Serial Number: 236 (0xec)
    Signature Algorithm: sha1WithRSAEncryption
        Issuer: CN=E CA
        Validity
            Not Before: Apr 22 21:58:52 2013 GMT
            Not After : Apr 20 21:58:52 2023 GMT
        Subject: CN=Client Cert D
        Subject Public Key Info:
            Public Key Algorithm: rsaEncryption
                Public-Key: (2048 bit)
                Modulus:
                    00:bd:20:09:c4:a0:49:8b:69:a7:4a:a6:08:93:15:
                    4b:64:75:33:fd:60:e8:8a:02:6e:15:4f:79:0b:33:
                    a5:4f:7b:93:b5:a9:94:70:15:77:5a:3f:a3:f0:51:
                    4e:6e:fb:4e:c1:a1:aa:36:1c:c4:23:f0:75:94:be:
                    f9:34:c6:08:1c:0e:61:44:72:e0:20:73:23:da:b0:
                    d7:00:8a:d2:37:4f:f3:40:a6:9e:bc:09:18:e2:50:
                    ea:00:62:16:26:2a:6e:e9:1e:c8:99:77:9d:98:33:
                    02:19:1e:89:34:13:79:cc:5d:4a:b9:10:41:ae:53:
                    8a:c8:61:4c:30:6c:7f:fc:3e:8a:bc:49:ea:05:77:
                    46:11:10:03:b6:8d:6c:cc:19:63:2d:85:7f:97:d2:
                    92:06:28:d4:f7:4e:74:80:c3:a7:ca:49:1a:a6:17:
                    81:ed:ed:8e:95:97:73:af:c9:ef:04:2a:de:c4:9a:
                    62:e5:f7:d4:dc:02:4f:b7:2e:a8:44:e3:31:b9:9b:
                    e0:fc:3b:cd:ea:ff:cf:5a:c4:4c:fa:7f:32:1e:8c:
                    5e:83:8d:db:28:65:39:32:72:15:0f:82:3c:e8:fe:
                    90:d3:90:61:bf:39:ab:fd:aa:5e:1e:26:15:71:c5:
                    f4:10:77:6a:85:47:f9:e9:6d:90:a9:3b:a5:d8:c6:
                    9b:f5
                Exponent: 65537 (0x10001)
        X509v3 extensions:
            X509v3 Basic Constraints: critical
                CA:FALSE
            X509v3 Extended Key Usage: 
                TLS Web Server Authentication, TLS Web Client Authentication
    Signature Algorithm: sha1WithRSAEncryption
         05:33:9d:86:a9:81:49:a9:5c:57:41:67:30:2a:b3:92:d5:96:
         f4:fc:4f:9a:ad:2a:18:f9:66:7e:e8:3a:ac:ef:6c:42:53:60:
         1b:99:cc:aa:bd:78:ef:d7:d7:d1:52:04:3f:c6:d5:ea:ec:51:
         d1:88:1f:ad:05:a7:16:12:2c:f9:7f:79:0f:10:70:de:a6:d1:
         62:93:68:57:5d:a0:bd:95:0f:ba:82:37:66:77:d6:48:1f:ab:
         10:aa:bd:1d:46:9c:23:d6:fa:2f:c2:3d:38:8e:84:7e:7a:62:
         f5:6f:6d:c3:68:95:6f:4f:99:ec:2c:d6:6c:22:aa:a3:0a:d0:
         09:d8:0f:19:5f:75:5d:65:6e:31:76:f9:b9:43:6b:f6:fa:22:
         70:ff:c0:fa:03:f6:22:89:5c:69:9d:9b:fb:f8:a0:e8:76:66:
         64:32:db:51:23:fb:58:e0:67:68:24:15:58:81:78:c3:80:7e:
         79:d7:1e:5e:bf:9c:82:04:cf:c8:34:6a:c7:1e:75:92:0d:45:
         d5:83:a3:5b:e7:3f:49:ed:7e:a0:f7:8b:6c:45:45:4d:f9:c0:
         1a:5c:17:50:93:35:87:1e:7e:12:dc:41:fc:6b:2c:f7:ac:97:
         6c:91:ba:47:22:91:99:36:45:74:14:f2:62:5b:e0:b1:59:ba:
         53:f4:34:1c
-----BEGIN CERTIFICATE-----
MIIC0jCCAbqgAwIBAgICAOwwDQYJKoZIhvcNAQEFBQAwDzENMAsGA1UEAwwERSBD
QTAeFw0xMzA0MjIyMTU4NTJaFw0yMzA0MjAyMTU4NTJaMBgxFjAUBgNVBAMMDUNs
aWVudCBDZXJ0IEQwggEiMA0GCSqGSIb3DQEBAQUAA4IBDwAwggEKAoIBAQC9IAnE
oEmLaadKpgiTFUtkdTP9YOiKAm4VT3kLM6VPe5O1qZRwFXdaP6PwUU5u+07Boao2
HMQj8HWUvvk0xggcDmFEcuAgcyPasNcAitI3T/NApp68CRjiUOoAYhYmKm7pHsiZ
d52YMwIZHok0E3nMXUq5EEGuU4rIYUwwbH/8Poq8SeoFd0YREAO2jWzMGWMthX+X
0pIGKNT3TnSAw6fKSRqmF4Ht7Y6Vl3Ovye8EKt7EmmLl99TcAk+3LqhE4zG5m+D8
O83q/89axEz6fzIejF6DjdsoZTkychUPgjzo/pDTkGG/Oav9ql4eJhVxxfQQd2qF
R/npbZCpO6XYxpv1AgMBAAGjLzAtMAwGA1UdEwEB/wQCMAAwHQYDVR0lBBYwFAYI
KwYBBQUHAwEGCCsGAQUFBwMCMA0GCSqGSIb3DQEBBQUAA4IBAQAFM52GqYFJqVxX
QWcwKrOS1Zb0/E+arSoY+WZ+6Dqs72xCU2AbmcyqvXjv19fRUgQ/xtXq7FHRiB+t
BacWEiz5f3kPEHDeptFik2hXXaC9lQ+6gjdmd9ZIH6sQqr0dRpwj1vovwj04joR+
emL1b23DaJVvT5nsLNZsIqqjCtAJ2A8ZX3VdZW4xdvm5Q2v2+iJw/8D6A/YiiVxp
nZv7+KDodmZkMttRI/tY4GdoJBVYgXjDgH551x5ev5yCBM/INGrHHnWSDUXVg6Nb
5z9J7X6g94tsRUVN+cAaXBdQkzWHHn4S3EH8ayz3rJdskbpHIpGZNkV0FPJiW+Cx
WbpT9DQc
-----END CERTIFICATE-----
