Certificate:
    Data:
        Version: 3 (0x2)
        Serial Number: 237 (0xed)
    Signature Algorithm: sha1WithRSAEncryption
        Issuer: CN=C Root CA
        Validity
            Not Before: Apr 22 21:58:52 2013 GMT
            Not After : Apr 20 21:58:52 2023 GMT
        Subject: CN=E CA
        Subject Public Key Info:
            Public Key Algorithm: rsaEncryption
                Public-Key: (2048 bit)
                Modulus:
                    00:e6:0b:39:56:df:1c:f7:69:44:73:00:91:ad:ef:
                    0a:31:1d:86:ca:67:b7:f5:bd:a8:34:d2:7d:af:3b:
                    46:61:98:d6:b6:ea:97:60:d8:1a:91:87:1e:b3:89:
                    f6:eb:8f:05:f4:7b:0b:77:3a:4c:7e:04:14:ce:60:
                    2f:f8:8c:c4:45:07:0b:86:ad:9e:97:58:20:90:4a:
                    16:90:f3:6e:7d:4e:92:f9:2b:bf:62:99:d6:86:38:
                    53:a4:33:79:df:7e:64:2b:8e:86:c0:c6:5a:87:73:
                    69:f5:5f:89:d5:3b:d7:f4:e4:1e:78:15:38:89:ff:
                    87:a9:7a:85:b9:4c:20:c6:44:7d:3a:d1:10:59:86:
                    7e:0f:d4:0c:a7:48:f8:42:7e:61:0a:bf:2b:4f:03:
                    3d:ac:f5:0f:01:5b:65:3b:fd:82:a1:8c:40:c7:8e:
                    24:e4:75:17:92:1c:76:e8:6c:f6:44:de:ee:90:d9:
                    cd:40:7c:70:50:91:23:a0:f5:c5:3c:9b:7e:5f:0d:
                    54:4d:b7:67:ce:1f:99:50:bf:da:a8:33:4f:6c:b3:
                    aa:4b:af:59:87:25:4a:8c:87:56:66:15:13:8a:58:
                    5a:9f:0a:fa:0e:34:8a:7a:cc:ac:9e:0e:c9:53:22:
                    b9:60:ae:32:b9:bc:5a:51:53:f9:f5:91:83:9e:df:
                    4b:77
                Exponent: 65537 (0x10001)
        X509v3 extensions:
            X509v3 Basic Constraints: critical
                CA:TRUE
            X509v3 Key Usage: critical
                Certificate Sign, CRL Sign
    Signature Algorithm: sha1WithRSAEncryption
         46:32:41:a6:8c:f8:2e:56:59:6a:e6:c0:2e:85:1b:49:19:ba:
         63:ee:5d:44:c1:91:f3:4b:1a:2c:e9:fd:d7:5f:0e:24:63:6a:
         ea:5f:37:fd:ad:db:54:ad:a8:2b:10:f7:7c:86:98:39:62:ad:
         50:bb:c4:f5:e1:4d:1f:12:30:83:cc:a9:cb:c7:5e:f9:d9:ee:
         95:8f:d2:5a:f6:24:45:09:f6:66:44:76:79:e4:49:08:3b:ca:
         c7:09:7c:f6:26:07:9c:01:70:38:cd:57:3f:16:ad:af:82:42:
         4d:7e:e4:45:ed:0e:8d:83:a0:7a:56:8b:3f:21:52:db:6b:ca:
         ab:bb:f0:17:10:e9:83:af:fd:4a:ea:32:61:ea:ec:fe:42:67:
         fd:a2:2e:7a:3d:d7:9f:ff:f0:59:8b:a6:54:4d:77:f2:0c:4f:
         c4:71:7e:8c:f0:3b:4b:72:6d:f7:28:35:0f:96:42:61:bf:28:
         44:a2:7c:86:43:65:aa:3d:c1:6d:cf:41:f3:23:d3:96:ea:d4:
         e0:72:78:04:d9:ff:7e:7c:fc:bf:88:f9:e2:64:80:47:52:97:
         42:11:07:90:3c:31:35:c2:f9:83:88:e7:59:3f:f4:06:f4:b8:
         07:35:14:56:1f:73:b9:a5:c3:95:47:20:4d:e0:8e:41:bd:c5:
         7b:88:15:d6
-----BEGIN CERTIFICATE-----
MIICwjCCAaqgAwIBAgICAO0wDQYJKoZIhvcNAQEFBQAwFDESMBAGA1UEAwwJQyBS
b290IENBMB4XDTEzMDQyMjIxNTg1MloXDTIzMDQyMDIxNTg1MlowDzENMAsGA1UE
AwwERSBDQTCCASIwDQYJKoZIhvcNAQEBBQADggEPADCCAQoCggEBAOYLOVbfHPdp
RHMAka3vCjEdhspnt/W9qDTSfa87RmGY1rbql2DYGpGHHrOJ9uuPBfR7C3c6TH4E
FM5gL/iMxEUHC4atnpdYIJBKFpDzbn1Okvkrv2KZ1oY4U6Qzed9+ZCuOhsDGWodz
afVfidU71/TkHngVOIn/h6l6hblMIMZEfTrREFmGfg/UDKdI+EJ+YQq/K08DPaz1
DwFbZTv9gqGMQMeOJOR1F5Icduhs9kTe7pDZzUB8cFCRI6D1xTybfl8NVE23Z84f
mVC/2qgzT2yzqkuvWYclSoyHVmYVE4pYWp8K+g40inrMrJ4OyVMiuWCuMrm8WlFT
+fWRg57fS3cCAwEAAaMjMCEwDwYDVR0TAQH/BAUwAwEB/zAOBgNVHQ8BAf8EBAMC
AQYwDQYJKoZIhvcNAQEFBQADggEBAEYyQaaM+C5WWWrmwC6FG0kZumPuXUTBkfNL
Gizp/ddfDiRjaupfN/2t21StqCsQ93yGmDlirVC7xPXhTR8SMIPMqcvHXvnZ7pWP
0lr2JEUJ9mZEdnnkSQg7yscJfPYmB5wBcDjNVz8Wra+CQk1+5EXtDo2DoHpWiz8h
Uttryqu78BcQ6YOv/UrqMmHq7P5CZ/2iLno915//8FmLplRNd/IMT8RxfozwO0ty
bfcoNQ+WQmG/KESifIZDZao9wW3PQfMj05bq1OByeATZ/358/L+I+eJkgEdSl0IR
B5A8MTXC+YOI51k/9Ab0uAc1FFYfc7mlw5VHIE3gjkG9xXuIFdY=
-----END CERTIFICATE-----
