-----BEGIN RSA PRIVATE KEY-----
MIIEpAIBAAKCAQEAvzKDpx0x9sOsDZBKBUMVs4yo7pXQT1lsfXeJTNiVErcCeSF9
Igu2jYI3+qn03TYCcWpcgwJ86DWSuloTCOi/+xD4DKxQErJzFcl3hq8Q00r9tCNg
7hmOup2hNYXOaC+U1tqC/TID9Gc8neJLHGkh2tfgbqemkFq6ObtYlA+hXy3kK+Tc
7g7r+FHHWpOgj7ihc82EX+y4VT6GQov2tQqZXYSOQOcPcEru0AhGY+wOgJ2Ge4m8
UNQmLxbmQDfqBplyRsUDqbTAjIE2nXpg9DT/vRufNW4ccSik4q1Wf/H2jAzONuL9
79bhpBJdFad1bxJE6SOLVW2WLJQlD3VR2aUiUQIDAQABAoIBAQC7k6tlwFbMaZva
kryL/QzFYjI6H/CGaIzvat7g7XsTKUjb3ecOB7/JhP+2hBcfD2XGLzsjrMUua6DQ
Ap66Ft6CSluQ01ybe0c9ELKbCBXRtbjBihQGhDxrCUqnX+bogAXd4/KuxOrsVHw7
yU83SE1WjoQ5C3F2Hgylpw938v22iXPvc+V6QjCGY1Apw75I/M3rmBHfyfVyUUYT
Pt1UOZmhWq/gt0S5ACWDkFAxN/Ld2fyUTQM4q1PV1qR73KmxJr8y+SMTMVtx4V8n
MFSiUeNan6xQUuI3iK4UCvi8TAFf8sKqM9vDte8wSaiC6TkJJTl+rnJtsyItVs5n
eropLKIBAoGBAO8X374KqWREiFt/BKsjhs1upuyko7AgwHhSpkxHKqDSsOUITkym
88+Pav/C/oExMIqRCMbz8F2V72Tu15sowVk4aFe35U+HxnWjhjCi1tI3Ujm0SGl0
HPmEryhx6TuIj4Z901VH3mL9C8zab08n0ANYxn4aaQEOe1SOhX+KvnnZAoGBAMy3
nbUMlVyactn757teQ0GHLnBERLYKOp7pmjx+SIUYrnPCPE2A+8ZF6Ron+5UvxtSu
Kx4MRsOHbzI/4m+erbNX+OKN/4thLbzlokfAOJnV6n7kHeKZPVZVY3PQqr4WbN2a
EwsVJ6gyBwGTqtXXRY7rJNPInN7i8U1ffKrkEmk5AoGBAIinqphiW6MVkKJLHQ38
BkZQolPLXkuCzL947dfXLUQyaCzf7HDfU6ckn9GDUBfjV407jDq6nn2+/s8/vDfQ
uYIXPXw1fXlRb1s5la8iw4nvWK3mnyS22wC6l6qUQOxoBzClpi6uHyuQ2jfB+bDS
XpArI3hb+/xAnLkdpKvbTzcxAoGANWl22UT2N1oIuz0RQf6fF5q4kAwPzVsv3kRe
vIfKTgeZhJRZ/XK4vguBfRSPfGYhv13N3CIh2GQerAKlBrBk65T5V8rqsKfjMhTL
2WKaofCBJShJb9TBfyP6Nb5svfnF36+SZmLXnPeogk3P1ck72cUaL7N40mJtyN0v
/rpQ32kCgYAF9pEUVyEmIFyPJCDyPqD8c4ZisONKd/MnLs6tYEYwxSkJq6QUTZe6
0LWDp1Ohcg5V5Upg0pQotAPmLTQ77XPlLl92ByFdbakH/p8Q73Lv0j/y6c1BYeSn
JQm2/uLDW4Zrp+UzD7z6km2GjyeVDxfbpaEHsXRhMfJLZdrI1ZJvyA==
-----END RSA PRIVATE KEY-----
Certificate:
    Data:
        Version: 1 (0x0)
        Serial Number: 237 (0xed)
    Signature Algorithm: sha1WithRSAEncryption
        Issuer: CN=2048 RSA Test Root CA
        Validity
            Not Before: Jan 23 23:51:05 2013 GMT
            Not After : Jan 21 23:51:05 2023 GMT
        Subject: C=US, ST=California, L=Mountain View, O=Test CA, CN=127.0.0.1
        Subject Public Key Info:
            Public Key Algorithm: rsaEncryption
                Public-Key: (2048 bit)
                Modulus:
                    00:bf:32:83:a7:1d:31:f6:c3:ac:0d:90:4a:05:43:
                    15:b3:8c:a8:ee:95:d0:4f:59:6c:7d:77:89:4c:d8:
                    95:12:b7:02:79:21:7d:22:0b:b6:8d:82:37:fa:a9:
                    f4:dd:36:02:71:6a:5c:83:02:7c:e8:35:92:ba:5a:
                    13:08:e8:bf:fb:10:f8:0c:ac:50:12:b2:73:15:c9:
                    77:86:af:10:d3:4a:fd:b4:23:60:ee:19:8e:ba:9d:
                    a1:35:85:ce:68:2f:94:d6:da:82:fd:32:03:f4:67:
                    3c:9d:e2:4b:1c:69:21:da:d7:e0:6e:a7:a6:90:5a:
                    ba:39:bb:58:94:0f:a1:5f:2d:e4:2b:e4:dc:ee:0e:
                    eb:f8:51:c7:5a:93:a0:8f:b8:a1:73:cd:84:5f:ec:
                    b8:55:3e:86:42:8b:f6:b5:0a:99:5d:84:8e:40:e7:
                    0f:70:4a:ee:d0:08:46:63:ec:0e:80:9d:86:7b:89:
                    bc:50:d4:26:2f:16:e6:40:37:ea:06:99:72:46:c5:
                    03:a9:b4:c0:8c:81:36:9d:7a:60:f4:34:ff:bd:1b:
                    9f:35:6e:1c:71:28:a4:e2:ad:56:7f:f1:f6:8c:0c:
                    ce:36:e2:fd:ef:d6:e1:a4:12:5d:15:a7:75:6f:12:
                    44:e9:23:8b:55:6d:96:2c:94:25:0f:75:51:d9:a5:
                    22:51
                Exponent: 65537 (0x10001)
        X509v3 extensions:
            X509v3 Subject Alternative Name: 
                IP Address:127.0.0.1
            X509v3 Basic Constraints: critical
                CA:FALSE
            X509v3 Subject Key Identifier: 
                A2:2A:EC:DD:31:B9:D2:D1:6A:21:8D:11:C1:2B:E5:1E:92:85:C4:06
            X509v3 Extended Key Usage: critical
                Code Signing
    Signature Algorithm: sha1WithRSAEncryption
         6c:46:ce:18:06:16:77:8a:81:dc:aa:f9:b9:0d:af:ce:61:bf:
         3e:60:2c:c9:58:97:54:41:a9:14:44:4d:e7:b7:fa:3c:6f:09:
         92:d6:d2:5d:89:60:ef:ec:3d:62:f7:22:d9:df:e4:05:3b:23:
         2a:3c:f1:6f:f3:e9:9c:61:8f:b0:92:d2:67:81:aa:43:dc:37:
         bc:27:e7:d8:59:ce:f9:cc:fd:b0:30:c3:8d:68:f0:bf:91:7c:
         3b:1a:7c:af:ef:23:1a:c2:1d:bc:be:c2:eb:06:9a:57:be:ed:
         b6:9f:81:6f:86:35:22:68:2d:89:47:d6:80:ca:4a:91:05:6d:
         49:aa:88:9e:4b:3a:90:0b:72:4f:b4:af:44:5d:67:52:11:cf:
         6b:52:ac:db:48:23:aa:e0:53:f0:4c:49:98:62:70:d7:dc:2d:
         c9:8d:5d:35:7c:e4:a9:50:d4:50:56:e1:d9:9a:7a:35:f7:11:
         b6:98:f6:76:6d:33:7c:8b:1a:82:20:2c:ae:b5:93:f0:55:77:
         da:f0:a2:86:e8:d4:4d:7f:e9:c0:e3:21:6e:bc:e9:af:9a:9a:
         f3:cd:36:4f:db:6f:fe:de:1f:fa:20:de:ec:f6:63:d2:98:01:
         f4:45:29:1f:88:a0:0b:5c:a8:4a:0e:87:c5:94:07:fb:60:79:
         13:a9:ce:1f
-----BEGIN CERTIFICATE-----
MIIDTzCCAjcCAgDtMA0GCSqGSIb3DQEBBQUAMCAxHjAcBgNVBAMMFTIwNDggUlNB
IFRlc3QgUm9vdCBDQTAeFw0xMzAxMjMyMzUxMDVaFw0yMzAxMjEyMzUxMDVaMGAx
CzAJBgNVBAYTAlVTMRMwEQYDVQQIDApDYWxpZm9ybmlhMRYwFAYDVQQHDA1Nb3Vu
dGFpbiBWaWV3MRAwDgYDVQQKDAdUZXN0IENBMRIwEAYDVQQDDAkxMjcuMC4wLjEw
ggEiMA0GCSqGSIb3DQEBAQUAA4IBDwAwggEKAoIBAQC/MoOnHTH2w6wNkEoFQxWz
jKjuldBPWWx9d4lM2JUStwJ5IX0iC7aNgjf6qfTdNgJxalyDAnzoNZK6WhMI6L/7
EPgMrFASsnMVyXeGrxDTSv20I2DuGY66naE1hc5oL5TW2oL9MgP0Zzyd4kscaSHa
1+Bup6aQWro5u1iUD6FfLeQr5NzuDuv4Ucdak6CPuKFzzYRf7LhVPoZCi/a1Cpld
hI5A5w9wSu7QCEZj7A6AnYZ7ibxQ1CYvFuZAN+oGmXJGxQOptMCMgTademD0NP+9
G581bhxxKKTirVZ/8faMDM424v3v1uGkEl0Vp3VvEkTpI4tVbZYslCUPdVHZpSJR
AgMBAAGjWDBWMA8GA1UdEQQIMAaHBH8AAAEwDAYDVR0TAQH/BAIwADAdBgNVHQ4E
FgQUoirs3TG50tFqIY0RwSvlHpKFxAYwFgYDVR0lAQH/BAwwCgYIKwYBBQUHAwMw
DQYJKoZIhvcNAQEFBQADggEBAGxGzhgGFneKgdyq+bkNr85hvz5gLMlYl1RBqRRE
Tee3+jxvCZLW0l2JYO/sPWL3Itnf5AU7Iyo88W/z6Zxhj7CS0meBqkPcN7wn59hZ
zvnM/bAww41o8L+RfDsafK/vIxrCHby+wusGmle+7bafgW+GNSJoLYlH1oDKSpEF
bUmqiJ5LOpALck+0r0RdZ1IRz2tSrNtII6rgU/BMSZhicNfcLcmNXTV85KlQ1FBW
4dmaejX3EbaY9nZtM3yLGoIgLK61k/BVd9rwoobo1E1/6cDjIW686a+amvPNNk/b
b/7eH/og3uz2Y9KYAfRFKR+IoAtcqEoOh8WUB/tgeROpzh8=
-----END CERTIFICATE-----
