Certificate:
    Data:
        Version: 3 (0x2)
        Serial Number: 9681607970376803213 (0x865bfb2758e6638d)
    Signature Algorithm: md5WithRSAEncryption
        Issuer: CN=Test Dup-Hash Root CA
        Validity
            Not Before: Jul  1 22:15:21 2013 GMT
            Not After : Jun 29 22:15:21 2023 GMT
        Subject: CN=Test Dup-Hash Root CA
        Subject Public Key Info:
            Public Key Algorithm: rsaEncryption
                Public-Key: (2048 bit)
                Modulus:
                    00:de:f6:bf:8a:9b:10:4f:4c:c8:e7:9d:38:f8:ce:
                    fc:f9:02:89:38:05:be:2e:cc:bc:18:8d:cc:32:cb:
                    65:06:21:b6:12:1a:af:fc:98:60:26:60:e7:60:57:
                    68:24:17:d6:6c:f9:f1:0f:5b:a9:ae:55:a3:fc:84:
                    c7:b4:0d:e6:71:98:e5:a5:6a:3a:30:05:35:22:59:
                    29:d3:27:4c:82:c4:1c:d6:2b:19:78:c7:2c:6e:75:
                    c0:bb:5f:3c:c0:9f:ed:0f:72:10:59:0d:cd:88:08:
                    76:9b:e1:fc:1d:7d:d1:d0:d7:e1:76:d8:44:9c:c4:
                    80:3e:d1:09:cb:67:07:81:ed:1a:fc:68:15:3a:11:
                    f8:f8:8e:02:8b:ec:e3:c5:e6:84:7f:99:79:cf:d8:
                    9e:54:ea:3e:65:3c:ae:cb:4f:a5:4a:3b:32:65:00:
                    92:45:e5:cd:2a:38:f3:18:b2:1d:62:8e:3c:a5:89:
                    47:6a:0d:43:87:68:82:10:5d:e3:db:70:e5:60:9c:
                    13:c4:87:54:3d:3c:7b:f1:b4:16:b6:4b:b9:23:74:
                    a4:a1:91:e2:61:29:63:37:b2:74:ec:49:a1:94:35:
                    34:fd:c6:5c:55:54:14:14:eb:e1:12:22:28:0a:9e:
                    10:b4:37:54:e6:50:93:85:87:0f:c1:34:ca:cb:76:
                    12:8f
                Exponent: 65537 (0x10001)
        X509v3 extensions:
            X509v3 Basic Constraints: critical
                CA:TRUE
            X509v3 Subject Key Identifier: 
                96:2A:53:9C:77:4D:AC:DD:C3:62:E8:7C:3A:53:66:E6:B1:9E:D0:5F
            X509v3 Key Usage: critical
                Certificate Sign, CRL Sign
    Signature Algorithm: md5WithRSAEncryption
         2d:0f:96:87:ae:0d:e6:47:c7:5b:b7:5c:d3:85:7a:b0:1b:e0:
         6e:43:1f:c7:8d:ab:1b:5a:5b:bf:3b:a4:de:4b:45:bd:f6:59:
         12:b2:56:7e:4c:ea:67:e9:bc:23:09:ba:e8:89:55:78:98:55:
         b0:12:bf:92:3c:45:e7:ec:56:f7:88:1d:10:f3:68:1a:84:97:
         26:44:90:e5:19:09:77:94:08:2c:f1:27:1e:bb:09:6d:36:47:
         de:e2:7d:b4:fb:d5:8d:11:d7:09:9e:22:16:3e:e9:67:de:2b:
         e6:6b:25:f6:02:b1:9c:5f:27:62:fe:21:a1:58:8f:b0:68:7d:
         44:1a:b4:af:b1:1b:c3:5d:84:d0:a4:1c:57:4c:28:2d:64:4f:
         c6:19:93:c2:96:7d:b0:1f:80:e5:08:a0:14:1f:03:0c:ab:90:
         c5:c9:01:22:36:39:66:a9:38:9d:8f:89:34:da:60:85:6e:de:
         47:33:78:d3:52:ea:0b:8d:38:70:8a:6b:b1:72:18:8e:e2:01:
         28:df:23:4a:18:9c:65:7e:f9:42:04:84:62:67:40:31:16:9d:
         09:0c:d6:2c:b6:86:5d:d0:b4:08:af:ca:d3:4e:a2:2c:15:d7:
         c8:48:5c:92:ee:33:84:2d:6e:5e:97:f3:f7:ee:1a:30:fc:83:
         50:60:80:7a
-----BEGIN CERTIFICATE-----
MIIDBTCCAe2gAwIBAgIJAIZb+ydY5mONMA0GCSqGSIb3DQEBBAUAMCAxHjAcBgNV
BAMMFVRlc3QgRHVwLUhhc2ggUm9vdCBDQTAeFw0xMzA3MDEyMjE1MjFaFw0yMzA2
MjkyMjE1MjFaMCAxHjAcBgNVBAMMFVRlc3QgRHVwLUhhc2ggUm9vdCBDQTCCASIw
DQYJKoZIhvcNAQEBBQADggEPADCCAQoCggEBAN72v4qbEE9MyOedOPjO/PkCiTgF
vi7MvBiNzDLLZQYhthIar/yYYCZg52BXaCQX1mz58Q9bqa5Vo/yEx7QN5nGY5aVq
OjAFNSJZKdMnTILEHNYrGXjHLG51wLtfPMCf7Q9yEFkNzYgIdpvh/B190dDX4XbY
RJzEgD7RCctnB4HtGvxoFToR+PiOAovs48XmhH+Zec/YnlTqPmU8rstPpUo7MmUA
kkXlzSo48xiyHWKOPKWJR2oNQ4doghBd49tw5WCcE8SHVD08e/G0FrZLuSN0pKGR
4mEpYzeydOxJoZQ1NP3GXFVUFBTr4RIiKAqeELQ3VOZQk4WHD8E0yst2Eo8CAwEA
AaNCMEAwDwYDVR0TAQH/BAUwAwEB/zAdBgNVHQ4EFgQUlipTnHdNrN3DYuh8OlNm
5rGe0F8wDgYDVR0PAQH/BAQDAgEGMA0GCSqGSIb3DQEBBAUAA4IBAQAtD5aHrg3m
R8dbt1zThXqwG+BuQx/HjasbWlu/O6TeS0W99lkSslZ+TOpn6bwjCbroiVV4mFWw
Er+SPEXn7Fb3iB0Q82gahJcmRJDlGQl3lAgs8SceuwltNkfe4n20+9WNEdcJniIW
Puln3ivmayX2ArGcXydi/iGhWI+waH1EGrSvsRvDXYTQpBxXTCgtZE/GGZPCln2w
H4DlCKAUHwMMq5DFyQEiNjlmqTidj4k02mCFbt5HM3jTUuoLjThwimuxchiO4gEo
3yNKGJxlfvlCBIRiZ0AxFp0JDNYstoZd0LQIr8rTTqIsFdfISFyS7jOELW5el/P3
7how/INQYIB6
-----END CERTIFICATE-----
