Certificate:
    Data:
        Version: 3 (0x2)
        Serial Number: 236 (0xec)
    Signature Algorithm: sha1WithRSAEncryption
        Issuer: CN=Test Dup-Hash Root CA
        Validity
            Not Before: Jul  1 22:15:21 2013 GMT
            Not After : Jun 29 22:15:21 2023 GMT
        Subject: C=US, ST=California, L=Mountain View, O=Test CA, CN=127.0.0.1
        Subject Public Key Info:
            Public Key Algorithm: rsaEncryption
                Public-Key: (2048 bit)
                Modulus:
                    00:b7:96:78:e6:03:94:d8:22:d8:88:01:b2:00:93:
                    86:a1:c0:d9:49:5f:23:40:93:f8:ec:3f:9e:b2:b3:
                    9d:70:ea:6d:83:6c:05:fd:7c:04:be:61:0f:3b:12:
                    54:cf:36:fd:0b:33:b9:e8:6f:ea:2a:fd:6c:9a:1f:
                    a9:8d:e9:1b:77:0f:7b:cd:14:1c:5c:b2:0f:8b:b7:
                    97:14:7c:25:78:e0:26:3c:e0:e6:8a:f7:6f:25:5d:
                    45:34:c3:fe:26:67:d7:69:8d:21:e9:b4:86:59:86:
                    cb:15:fa:10:dc:d3:30:57:da:0d:a5:c7:ee:16:f6:
                    56:89:e3:51:7e:e6:2d:8d:9c:6f:3f:ca:57:3b:bc:
                    1e:81:58:28:a1:ff:0f:d9:0b:44:a5:04:9d:a4:4f:
                    68:5a:67:46:80:1b:df:24:40:49:ac:4c:85:70:f3:
                    84:47:81:cf:8d:cc:4b:e2:b0:4b:1f:33:ed:c3:a0:
                    7d:8c:d5:a0:4c:43:68:fb:2a:59:74:25:2b:ef:da:
                    3c:db:75:6c:84:b4:1e:fa:f1:26:40:03:7c:f7:04:
                    cf:99:70:9a:49:10:f6:91:1c:30:2d:a7:33:5f:7e:
                    92:4e:b0:91:4f:24:35:92:92:e3:77:99:db:6f:21:
                    4d:82:b8:01:f8:d6:5e:cc:1a:20:1e:d9:3e:d7:1d:
                    fb:dd
                Exponent: 65537 (0x10001)
        X509v3 extensions:
            X509v3 Basic Constraints: critical
                CA:FALSE
            X509v3 Subject Key Identifier: 
                80:2C:F6:3D:68:54:4C:34:20:8F:76:5B:06:97:BB:9E:40:8D:28:3E
            X509v3 Authority Key Identifier: 
                keyid:96:2A:53:9C:77:4D:AC:DD:C3:62:E8:7C:3A:53:66:E6:B1:9E:D0:5F

            X509v3 Extended Key Usage: 
                TLS Web Server Authentication, TLS Web Client Authentication
            X509v3 Subject Alternative Name: 
                IP Address:127.0.0.1
    Signature Algorithm: sha1WithRSAEncryption
         78:fb:0b:4a:4f:9e:6d:76:b7:c0:27:0f:06:92:a9:c1:97:d9:
         cd:15:5d:9b:18:93:2a:06:95:bc:48:e9:4e:02:ac:92:a5:c8:
         6a:71:1d:69:a2:8d:ae:bd:cf:5b:d9:c3:5e:cb:db:01:13:1b:
         c7:13:fd:22:f6:ca:48:ca:98:de:93:54:48:15:38:1f:22:c8:
         2f:fb:71:73:2e:f5:d2:7e:48:91:6e:9a:c7:0b:51:96:d6:c1:
         c0:2a:d4:3c:69:3e:dd:1d:7d:d4:b1:0f:d1:d3:41:ca:a8:22:
         8f:19:9d:a7:91:7b:25:26:4e:c6:e8:3b:9b:e7:cd:c4:f2:c5:
         63:c3:10:6f:93:03:b1:c6:e9:05:db:1e:cf:42:19:72:b2:b2:
         cf:30:a0:99:70:6c:fb:4e:7f:ca:a5:3b:8b:83:72:10:77:04:
         e4:96:a9:8e:70:2d:c0:54:71:5e:76:8f:4c:20:33:d6:78:f2:
         d9:6a:2c:b0:7a:1e:82:08:3d:e8:59:87:e9:a0:3c:84:3d:b4:
         60:38:01:89:04:93:d0:3e:36:5d:57:aa:03:4f:ca:46:80:a0:
         d2:2c:d0:59:18:b1:fb:66:84:39:4d:90:c5:20:d7:4b:03:11:
         77:b4:fd:24:58:d9:1f:dc:4d:34:f7:c9:54:59:3f:8e:1a:17:
         e8:b1:65:a5
-----BEGIN CERTIFICATE-----
MIIDfTCCAmWgAwIBAgICAOwwDQYJKoZIhvcNAQEFBQAwIDEeMBwGA1UEAwwVVGVz
dCBEdXAtSGFzaCBSb290IENBMB4XDTEzMDcwMTIyMTUyMVoXDTIzMDYyOTIyMTUy
MVowYDELMAkGA1UEBhMCVVMxEzARBgNVBAgMCkNhbGlmb3JuaWExFjAUBgNVBAcM
DU1vdW50YWluIFZpZXcxEDAOBgNVBAoMB1Rlc3QgQ0ExEjAQBgNVBAMMCTEyNy4w
LjAuMTCCASIwDQYJKoZIhvcNAQEBBQADggEPADCCAQoCggEBALeWeOYDlNgi2IgB
sgCThqHA2UlfI0CT+Ow/nrKznXDqbYNsBf18BL5hDzsSVM82/Qszuehv6ir9bJof
qY3pG3cPe80UHFyyD4u3lxR8JXjgJjzg5or3byVdRTTD/iZn12mNIem0hlmGyxX6
ENzTMFfaDaXH7hb2VonjUX7mLY2cbz/KVzu8HoFYKKH/D9kLRKUEnaRPaFpnRoAb
3yRASaxMhXDzhEeBz43MS+KwSx8z7cOgfYzVoExDaPsqWXQlK+/aPNt1bIS0Hvrx
JkADfPcEz5lwmkkQ9pEcMC2nM19+kk6wkU8kNZKS43eZ228hTYK4AfjWXswaIB7Z
Ptcd+90CAwEAAaOBgDB+MAwGA1UdEwEB/wQCMAAwHQYDVR0OBBYEFIAs9j1oVEw0
II92WwaXu55AjSg+MB8GA1UdIwQYMBaAFJYqU5x3Tazdw2LofDpTZuaxntBfMB0G
A1UdJQQWMBQGCCsGAQUFBwMBBggrBgEFBQcDAjAPBgNVHREECDAGhwR/AAABMA0G
CSqGSIb3DQEBBQUAA4IBAQB4+wtKT55tdrfAJw8GkqnBl9nNFV2bGJMqBpW8SOlO
AqySpchqcR1poo2uvc9b2cNey9sBExvHE/0i9spIypjek1RIFTgfIsgv+3FzLvXS
fkiRbprHC1GW1sHAKtQ8aT7dHX3UsQ/R00HKqCKPGZ2nkXslJk7G6Dub583E8sVj
wxBvkwOxxukF2x7PQhlysrLPMKCZcGz7Tn/KpTuLg3IQdwTklqmOcC3AVHFedo9M
IDPWePLZaiyweh6CCD3oWYfpoDyEPbRgOAGJBJPQPjZdV6oDT8pGgKDSLNBZGLH7
ZoQ5TZDFINdLAxF3tP0kWNkf3E0098lUWT+OGhfosWWl
-----END CERTIFICATE-----
