Certificate:
    Data:
        Version: 3 (0x2)
        Serial Number: 16026332507200838417 (0xde68f88110005b11)
    Signature Algorithm: sha1WithRSAEncryption
        Issuer: CN=Test Dup-Hash Root CA
        Validity
            Not Before: Jul  1 22:15:21 2013 GMT
            Not After : Jun 29 22:15:21 2023 GMT
        Subject: CN=Test Dup-Hash Root CA
        Subject Public Key Info:
            Public Key Algorithm: rsaEncryption
                Public-Key: (2048 bit)
                Modulus:
                    00:de:f6:bf:8a:9b:10:4f:4c:c8:e7:9d:38:f8:ce:
                    fc:f9:02:89:38:05:be:2e:cc:bc:18:8d:cc:32:cb:
                    65:06:21:b6:12:1a:af:fc:98:60:26:60:e7:60:57:
                    68:24:17:d6:6c:f9:f1:0f:5b:a9:ae:55:a3:fc:84:
                    c7:b4:0d:e6:71:98:e5:a5:6a:3a:30:05:35:22:59:
                    29:d3:27:4c:82:c4:1c:d6:2b:19:78:c7:2c:6e:75:
                    c0:bb:5f:3c:c0:9f:ed:0f:72:10:59:0d:cd:88:08:
                    76:9b:e1:fc:1d:7d:d1:d0:d7:e1:76:d8:44:9c:c4:
                    80:3e:d1:09:cb:67:07:81:ed:1a:fc:68:15:3a:11:
                    f8:f8:8e:02:8b:ec:e3:c5:e6:84:7f:99:79:cf:d8:
                    9e:54:ea:3e:65:3c:ae:cb:4f:a5:4a:3b:32:65:00:
                    92:45:e5:cd:2a:38:f3:18:b2:1d:62:8e:3c:a5:89:
                    47:6a:0d:43:87:68:82:10:5d:e3:db:70:e5:60:9c:
                    13:c4:87:54:3d:3c:7b:f1:b4:16:b6:4b:b9:23:74:
                    a4:a1:91:e2:61:29:63:37:b2:74:ec:49:a1:94:35:
                    34:fd:c6:5c:55:54:14:14:eb:e1:12:22:28:0a:9e:
                    10:b4:37:54:e6:50:93:85:87:0f:c1:34:ca:cb:76:
                    12:8f
                Exponent: 65537 (0x10001)
        X509v3 extensions:
            X509v3 Basic Constraints: critical
                CA:TRUE
            X509v3 Subject Key Identifier: 
                96:2A:53:9C:77:4D:AC:DD:C3:62:E8:7C:3A:53:66:E6:B1:9E:D0:5F
            X509v3 Key Usage: critical
                Certificate Sign, CRL Sign
    Signature Algorithm: sha1WithRSAEncryption
         82:0e:89:6b:05:a5:56:b1:0f:79:19:9f:1e:88:c9:7a:ba:fc:
         7e:9b:58:39:64:38:89:64:c6:59:c6:be:d1:c1:d7:41:bb:ac:
         68:22:61:df:27:0f:ee:00:90:8f:8a:27:ab:dc:46:6f:d3:f2:
         5e:1e:02:1f:8b:56:9f:83:6d:8d:a4:2a:2e:e3:f1:f1:91:ec:
         c9:1c:f2:10:b7:7d:47:f4:1b:ff:75:c5:a9:74:5c:d7:f8:41:
         c3:51:30:9d:bf:13:f6:24:82:70:15:83:2f:0d:e4:ce:8f:3a:
         ff:92:d5:7d:6d:1a:66:6e:4a:15:4f:c3:c3:45:8d:12:09:c8:
         0c:58:db:6b:3c:7b:3f:65:49:ea:5d:72:c3:3d:9b:a5:5f:72:
         9f:72:d6:32:44:4f:cc:79:2a:c1:22:01:5e:0a:cf:2b:f7:03:
         c6:bf:15:4b:d1:5a:ab:0f:c5:8f:11:6c:73:e9:a5:60:90:18:
         ec:c2:dc:27:ce:f8:f1:95:d3:8e:df:29:c5:4a:dc:35:db:ed:
         71:ee:33:2e:71:69:6f:29:fd:40:b2:ff:66:19:81:c7:4d:c3:
         e8:19:ad:d0:23:b3:7f:57:4e:95:15:52:dc:bf:65:b4:02:59:
         dc:07:c4:e9:08:88:bf:c1:a4:1b:6e:79:3f:38:02:fd:11:93:
         a8:f0:11:65
-----BEGIN CERTIFICATE-----
MIIDBTCCAe2gAwIBAgIJAN5o+IEQAFsRMA0GCSqGSIb3DQEBBQUAMCAxHjAcBgNV
BAMMFVRlc3QgRHVwLUhhc2ggUm9vdCBDQTAeFw0xMzA3MDEyMjE1MjFaFw0yMzA2
MjkyMjE1MjFaMCAxHjAcBgNVBAMMFVRlc3QgRHVwLUhhc2ggUm9vdCBDQTCCASIw
DQYJKoZIhvcNAQEBBQADggEPADCCAQoCggEBAN72v4qbEE9MyOedOPjO/PkCiTgF
vi7MvBiNzDLLZQYhthIar/yYYCZg52BXaCQX1mz58Q9bqa5Vo/yEx7QN5nGY5aVq
OjAFNSJZKdMnTILEHNYrGXjHLG51wLtfPMCf7Q9yEFkNzYgIdpvh/B190dDX4XbY
RJzEgD7RCctnB4HtGvxoFToR+PiOAovs48XmhH+Zec/YnlTqPmU8rstPpUo7MmUA
kkXlzSo48xiyHWKOPKWJR2oNQ4doghBd49tw5WCcE8SHVD08e/G0FrZLuSN0pKGR
4mEpYzeydOxJoZQ1NP3GXFVUFBTr4RIiKAqeELQ3VOZQk4WHD8E0yst2Eo8CAwEA
AaNCMEAwDwYDVR0TAQH/BAUwAwEB/zAdBgNVHQ4EFgQUlipTnHdNrN3DYuh8OlNm
5rGe0F8wDgYDVR0PAQH/BAQDAgEGMA0GCSqGSIb3DQEBBQUAA4IBAQCCDolrBaVW
sQ95GZ8eiMl6uvx+m1g5ZDiJZMZZxr7RwddBu6xoImHfJw/uAJCPiier3EZv0/Je
HgIfi1afg22NpCou4/HxkezJHPIQt31H9Bv/dcWpdFzX+EHDUTCdvxP2JIJwFYMv
DeTOjzr/ktV9bRpmbkoVT8PDRY0SCcgMWNtrPHs/ZUnqXXLDPZulX3KfctYyRE/M
eSrBIgFeCs8r9wPGvxVL0VqrD8WPEWxz6aVgkBjswtwnzvjxldOO3ynFStw12+1x
7jMucWlvKf1Asv9mGYHHTcPoGa3QI7N/V06VFVLcv2W0AlncB8TpCIi/waQbbnk/
OAL9EZOo8BFl
-----END CERTIFICATE-----
