Certificate:
    Data:
        Version: 3 (0x2)
        Serial Number: 120033005 (0x7278eed)
        Signature Algorithm: sha1WithRSAEncryption
        Issuer: C=US, O=GTE Corporation, OU=GTE CyberTrust Solutions, Inc., CN=GTE CyberTrust Global Root
        Validity
            Not Before: Apr 18 16:36:18 2012 GMT
            Not After : Aug 13 16:35:17 2018 GMT
        Subject: C=IE, O=Baltimore, OU=CyberTrust, CN=Baltimore CyberTrust Root
        Subject Public Key Info:
            Public Key Algorithm: rsaEncryption
            RSA Public Key: (2048 bit)
                Modulus (2048 bit):
                    00:a3:04:bb:22:ab:98:3d:57:e8:26:72:9a:b5:79:
                    d4:29:e2:e1:e8:95:80:b1:b0:e3:5b:8e:2b:29:9a:
                    64:df:a1:5d:ed:b0:09:05:6d:db:28:2e:ce:62:a2:
                    62:fe:b4:88:da:12:eb:38:eb:21:9d:c0:41:2b:01:
                    52:7b:88:77:d3:1c:8f:c7:ba:b9:88:b5:6a:09:e7:
                    73:e8:11:40:a7:d1:cc:ca:62:8d:2d:e5:8f:0b:a6:
                    50:d2:a8:50:c3:28:ea:f5:ab:25:87:8a:9a:96:1c:
                    a9:67:b8:3f:0c:d5:f7:f9:52:13:2f:c2:1b:d5:70:
                    70:f0:8f:c0:12:ca:06:cb:9a:e1:d9:ca:33:7a:77:
                    d6:f8:ec:b9:f1:68:44:42:48:13:d2:c0:c2:a4:ae:
                    5e:60:fe:b6:a6:05:fc:b4:dd:07:59:02:d4:59:18:
                    98:63:f5:a5:63:e0:90:0c:7d:5d:b2:06:7a:f3:85:
                    ea:eb:d4:03:ae:5e:84:3e:5f:ff:15:ed:69:bc:f9:
                    39:36:72:75:cf:77:52:4d:f3:c9:90:2c:b9:3d:e5:
                    c9:23:53:3f:1f:24:98:21:5c:07:99:29:bd:c6:3a:
                    ec:e7:6e:86:3a:6b:97:74:63:33:bd:68:18:31:f0:
                    78:8d:76:bf:fc:9e:8e:5d:2a:86:a7:4d:90:dc:27:
                    1a:39
                Exponent: 65537 (0x10001)
        X509v3 extensions:
            X509v3 Basic Constraints: critical
                CA:TRUE, pathlen:3
            X509v3 Certificate Policies: 
                Policy: X509v3 Any Policy
                  CPS: http://cybertrust.omniroot.com/repository

            X509v3 Key Usage: critical
                Certificate Sign, CRL Sign
            X509v3 Authority Key Identifier: 
                DirName:/C=US/O=GTE Corporation/OU=GTE CyberTrust Solutions, Inc./CN=GTE CyberTrust Global Root
                serial:01:A5

            X509v3 CRL Distribution Points: 
                URI:http://www.public-trust.com/cgi-bin/CRL/2018/cdp.crl

    Signature Algorithm: sha1WithRSAEncryption
        93:1d:fe:8b:ae:46:ec:cb:a9:0f:ab:e5:ef:ca:b2:68:16:68:
        d8:8f:fa:13:a9:af:b3:cb:2d:e7:4b:6e:8e:69:2a:c2:2b:10:
        0a:8d:f6:ae:73:b6:b9:fb:14:fd:5f:6d:b8:50:b6:c4:8a:d6:
        40:7e:d7:c3:cb:73:dc:c9:5d:5b:af:b0:41:b5:37:eb:ea:dc:
        20:91:c4:34:6a:f4:a1:f3:96:9d:37:86:97:e1:71:a4:dd:7d:
        fa:44:84:94:ae:d7:09:04:22:76:0f:64:51:35:a9:24:0f:f9:
        0b:db:32:da:c2:fe:c1:b9:2a:5c:7a:27:13:ca:b1:48:3a:71:
        d0:43
-----BEGIN CERTIFICATE-----
MIIEFTCCA36gAwIBAgIEByeO7TANBgkqhkiG9w0BAQUFADB1MQswCQYDVQQGEwJV
UzEYMBYGA1UEChMPR1RFIENvcnBvcmF0aW9uMScwJQYDVQQLEx5HVEUgQ3liZXJU
cnVzdCBTb2x1dGlvbnMsIEluYy4xIzAhBgNVBAMTGkdURSBDeWJlclRydXN0IEds
b2JhbCBSb290MB4XDTEyMDQxODE2MzYxOFoXDTE4MDgxMzE2MzUxN1owWjELMAkG
A1UEBhMCSUUxEjAQBgNVBAoTCUJhbHRpbW9yZTETMBEGA1UECxMKQ3liZXJUcnVz
dDEiMCAGA1UEAxMZQmFsdGltb3JlIEN5YmVyVHJ1c3QgUm9vdDCCASIwDQYJKoZI
hvcNAQEBBQADggEPADCCAQoCggEBAKMEuyKrmD1X6CZymrV51Cni4eiVgLGw41uO
KymaZN+hXe2wCQVt2yguzmKiYv60iNoS6zjrIZ3AQSsBUnuId9Mcj8e6uYi1agnn
c+gRQKfRzMpijS3ljwumUNKoUMMo6vWrJYeKmpYcqWe4PwzV9/lSEy/CG9VwcPCP
wBLKBsua4dnKM3p31vjsufFoREJIE9LAwqSuXmD+tqYF/LTdB1kC1FkYmGP1pWPg
kAx9XbIGevOF6uvUA65ehD5f/xXtabz5OTZydc93Uk3zyZAsuT3lySNTPx8kmCFc
B5kpvcY67Oduhjprl3RjM71oGDHweI12v/yejl0qhqdNkNwnGjkCAwEAAaOCAUcw
ggFDMBIGA1UdEwEB/wQIMAYBAf8CAQMwSgYDVR0gBEMwQTA/BgRVHSAAMDcwNQYI
KwYBBQUHAgEWKWh0dHA6Ly9jeWJlcnRydXN0Lm9tbmlyb290LmNvbS9yZXBvc2l0
b3J5MA4GA1UdDwEB/wQEAwIBBjCBiQYDVR0jBIGBMH+heaR3MHUxCzAJBgNVBAYT
AlVTMRgwFgYDVQQKEw9HVEUgQ29ycG9yYXRpb24xJzAlBgNVBAsTHkdURSBDeWJl
clRydXN0IFNvbHV0aW9ucywgSW5jLjEjMCEGA1UEAxMaR1RFIEN5YmVyVHJ1c3Qg
R2xvYmFsIFJvb3SCAgGlMEUGA1UdHwQ+MDwwOqA4oDaGNGh0dHA6Ly93d3cucHVi
bGljLXRydXN0LmNvbS9jZ2ktYmluL0NSTC8yMDE4L2NkcC5jcmwwDQYJKoZIhvcN
AQEFBQADgYEAkx3+i65G7MupD6vl78qyaBZo2I/6E6mvs8st50tujmkqwisQCo32
rnO2ufsU/V9tuFC2xIrWQH7Xw8tz3MldW6+wQbU36+rcIJHENGr0ofOWnTeGl+Fx
pN19+kSElK7XCQQidg9kUTWpJA/5C9sy2sL+wbkqXHonE8qxSDpx0EM=
-----END CERTIFICATE-----
