Certificate:
    Data:
        Version: 3 (0x2)
        Serial Number: 120024505 (0x7276db9)
        Signature Algorithm: sha1WithRSAEncryption
        Issuer: C=US, O=GTE Corporation, OU=GTE CyberTrust Solutions, Inc., CN=GTE CyberTrust Global Root
        Validity
            Not Before: Nov 30 16:35:21 2010 GMT
            Not After : Aug 10 15:34:26 2018 GMT
        Subject: C=IE, O=Baltimore, OU=CyberTrust, CN=Baltimore CyberTrust Root
        Subject Public Key Info:
            Public Key Algorithm: rsaEncryption
            RSA Public Key: (2048 bit)
                Modulus (2048 bit):
                    00:a3:04:bb:22:ab:98:3d:57:e8:26:72:9a:b5:79:
                    d4:29:e2:e1:e8:95:80:b1:b0:e3:5b:8e:2b:29:9a:
                    64:df:a1:5d:ed:b0:09:05:6d:db:28:2e:ce:62:a2:
                    62:fe:b4:88:da:12:eb:38:eb:21:9d:c0:41:2b:01:
                    52:7b:88:77:d3:1c:8f:c7:ba:b9:88:b5:6a:09:e7:
                    73:e8:11:40:a7:d1:cc:ca:62:8d:2d:e5:8f:0b:a6:
                    50:d2:a8:50:c3:28:ea:f5:ab:25:87:8a:9a:96:1c:
                    a9:67:b8:3f:0c:d5:f7:f9:52:13:2f:c2:1b:d5:70:
                    70:f0:8f:c0:12:ca:06:cb:9a:e1:d9:ca:33:7a:77:
                    d6:f8:ec:b9:f1:68:44:42:48:13:d2:c0:c2:a4:ae:
                    5e:60:fe:b6:a6:05:fc:b4:dd:07:59:02:d4:59:18:
                    98:63:f5:a5:63:e0:90:0c:7d:5d:b2:06:7a:f3:85:
                    ea:eb:d4:03:ae:5e:84:3e:5f:ff:15:ed:69:bc:f9:
                    39:36:72:75:cf:77:52:4d:f3:c9:90:2c:b9:3d:e5:
                    c9:23:53:3f:1f:24:98:21:5c:07:99:29:bd:c6:3a:
                    ec:e7:6e:86:3a:6b:97:74:63:33:bd:68:18:31:f0:
                    78:8d:76:bf:fc:9e:8e:5d:2a:86:a7:4d:90:dc:27:
                    1a:39
                Exponent: 65537 (0x10001)
        X509v3 extensions:
            X509v3 Basic Constraints: critical
                CA:TRUE, pathlen:3
            X509v3 Certificate Policies: 
                Policy: X509v3 Any Policy
                  CPS: http://cybertrust.omniroot.com/repository.cfm

            X509v3 Key Usage: critical
                Certificate Sign, CRL Sign
            X509v3 Authority Key Identifier: 
                DirName:/C=US/O=GTE Corporation/OU=GTE CyberTrust Solutions, Inc./CN=GTE CyberTrust Global Root
                serial:01:A5

            X509v3 CRL Distribution Points: 
                URI:http://www.public-trust.com/cgi-bin/CRL/2018/cdp.crl

            X509v3 Subject Key Identifier: 
                E5:9D:59:30:82:47:58:CC:AC:FA:08:54:36:86:7B:3A:B5:04:4D:F0
    Signature Algorithm: sha1WithRSAEncryption
        16:b4:2c:c9:f1:5e:e1:a2:7b:9b:78:20:7a:4a:70:70:86:19:
        00:b7:05:2a:e8:c9:25:39:0f:c3:64:3c:75:09:d9:89:15:80:
        07:c2:8d:bc:29:a5:64:50:cf:71:75:47:23:bd:4d:d8:7f:77:
        9a:51:10:6e:4e:1f:20:3c:47:9c:43:74:7f:96:84:10:4c:13:
        43:be:f8:e0:72:2e:ff:bf:ae:3c:0a:03:60:82:4b:6f:f9:9a:
        c5:1e:f6:af:90:3b:9f:61:3b:3e:de:9b:05:1a:c6:2c:3c:57:
        21:08:0f:54:fa:28:63:6c:e8:1b:9c:0f:cf:dd:30:44:13:b9:
        57:fe
-----BEGIN CERTIFICATE-----
MIIEODCCA6GgAwIBAgIEBydtuTANBgkqhkiG9w0BAQUFADB1MQswCQYDVQQGEwJV
UzEYMBYGA1UEChMPR1RFIENvcnBvcmF0aW9uMScwJQYDVQQLEx5HVEUgQ3liZXJU
cnVzdCBTb2x1dGlvbnMsIEluYy4xIzAhBgNVBAMTGkdURSBDeWJlclRydXN0IEds
b2JhbCBSb290MB4XDTEwMTEzMDE2MzUyMVoXDTE4MDgxMDE1MzQyNlowWjELMAkG
A1UEBhMCSUUxEjAQBgNVBAoTCUJhbHRpbW9yZTETMBEGA1UECxMKQ3liZXJUcnVz
dDEiMCAGA1UEAxMZQmFsdGltb3JlIEN5YmVyVHJ1c3QgUm9vdDCCASIwDQYJKoZI
hvcNAQEBBQADggEPADCCAQoCggEBAKMEuyKrmD1X6CZymrV51Cni4eiVgLGw41uO
KymaZN+hXe2wCQVt2yguzmKiYv60iNoS6zjrIZ3AQSsBUnuId9Mcj8e6uYi1agnn
c+gRQKfRzMpijS3ljwumUNKoUMMo6vWrJYeKmpYcqWe4PwzV9/lSEy/CG9VwcPCP
wBLKBsua4dnKM3p31vjsufFoREJIE9LAwqSuXmD+tqYF/LTdB1kC1FkYmGP1pWPg
kAx9XbIGevOF6uvUA65ehD5f/xXtabz5OTZydc93Uk3zyZAsuT3lySNTPx8kmCFc
B5kpvcY67Oduhjprl3RjM71oGDHweI12v/yejl0qhqdNkNwnGjkCAwEAAaOCAWow
ggFmMBIGA1UdEwEB/wQIMAYBAf8CAQMwTgYDVR0gBEcwRTBDBgRVHSAAMDswOQYI
KwYBBQUHAgEWLWh0dHA6Ly9jeWJlcnRydXN0Lm9tbmlyb290LmNvbS9yZXBvc2l0
b3J5LmNmbTAOBgNVHQ8BAf8EBAMCAQYwgYkGA1UdIwSBgTB/oXmkdzB1MQswCQYD
VQQGEwJVUzEYMBYGA1UEChMPR1RFIENvcnBvcmF0aW9uMScwJQYDVQQLEx5HVEUg
Q3liZXJUcnVzdCBTb2x1dGlvbnMsIEluYy4xIzAhBgNVBAMTGkdURSBDeWJlclRy
dXN0IEdsb2JhbCBSb290ggIBpTBFBgNVHR8EPjA8MDqgOKA2hjRodHRwOi8vd3d3
LnB1YmxpYy10cnVzdC5jb20vY2dpLWJpbi9DUkwvMjAxOC9jZHAuY3JsMB0GA1Ud
DgQWBBTlnVkwgkdYzKz6CFQ2hns6tQRN8DANBgkqhkiG9w0BAQUFAAOBgQAWtCzJ
8V7honubeCB6SnBwhhkAtwUq6MklOQ/DZDx1CdmJFYAHwo28KaVkUM9xdUcjvU3Y
f3eaURBuTh8gPEecQ3R/loQQTBNDvvjgci7/v648CgNggktv+ZrFHvavkDufYTs+
3psFGsYsPFchCA9U+ihjbOgbnA/P3TBEE7lX/g==
-----END CERTIFICATE-----
