Certificate:
    Data:
        Version: 1 (0x0)
        Serial Number: 17699587613995562877 (0xf5a19128931bf77d)
    Signature Algorithm: sha1WithRSAEncryption
        Issuer: CN=2048 RSA Test Root CA
        Validity
            Not Before: Jan 23 23:51:05 2013 GMT
            Not After : Jan 21 23:51:05 2023 GMT
        Subject: CN=2048 RSA Test Root CA
        Subject Public Key Info:
            Public Key Algorithm: rsaEncryption
                Public-Key: (2048 bit)
                Modulus:
                    00:b3:86:f9:ec:39:f5:63:1b:16:17:c9:fa:04:1a:
                    32:1b:d8:ff:01:7c:55:2f:90:66:da:be:8a:b6:1e:
                    68:ad:08:60:dc:63:40:c3:9c:fc:17:e9:5b:1f:bf:
                    a0:c7:de:42:7d:d8:cf:7b:56:9e:c7:17:65:65:45:
                    c5:e0:b0:80:c9:8a:b2:a5:a3:6e:af:14:96:56:9a:
                    12:b1:2b:d6:ef:e6:03:79:96:70:9b:6b:01:9e:42:
                    66:1f:8d:4b:bb:c7:60:09:df:2f:cc:b6:92:32:58:
                    91:2d:80:c5:0c:d5:e0:a7:48:1e:5a:3a:e0:68:34:
                    67:c0:67:59:2f:0d:fd:53:4c:5e:15:2a:2c:c2:ba:
                    8e:1e:61:86:88:cc:84:74:9f:05:ed:7b:10:c2:b5:
                    dc:57:8f:9f:cc:ad:a4:bd:a0:97:90:2a:a8:8e:fc:
                    e3:13:2d:ef:a6:6b:41:54:4a:60:d3:d6:18:8f:4e:
                    4f:fb:db:42:c3:5f:14:56:cd:e8:29:d1:f5:9b:55:
                    66:c1:d5:3c:c0:6b:04:1a:a8:51:89:36:c9:43:eb:
                    f6:5d:4f:74:3b:4d:ff:9c:9b:00:49:31:8c:bb:c3:
                    29:49:9e:08:6a:2b:41:a0:75:95:44:2d:28:6e:eb:
                    f9:4f:6c:2f:db:23:37:ef:f2:2a:3b:5e:e4:e4:0a:
                    e8:8d
                Exponent: 65537 (0x10001)
    Signature Algorithm: sha1WithRSAEncryption
         49:b1:97:48:72:dc:fb:97:56:f8:e7:80:81:9e:be:4b:9a:6a:
         d8:5e:b0:59:a1:45:65:f8:1d:ad:c3:de:41:c9:33:17:66:47:
         36:54:7f:3c:e8:84:a0:81:40:79:7a:4f:09:1c:88:11:e4:b7:
         b9:b1:ef:43:7b:70:67:21:81:9c:87:50:b0:1f:f6:fa:28:a4:
         62:e5:7d:e4:33:1c:50:11:7d:61:60:e4:bb:95:ba:0d:95:e8:
         a3:44:07:58:47:c8:e2:57:dc:a6:80:12:62:a4:a4:73:a1:9b:
         fc:6b:da:4d:44:44:8c:fc:c0:03:b2:6a:41:90:cd:db:53:17:
         05:74:7d:dd:3a:88:c6:ec:5d:d4:80:37:22:7f:b0:d2:eb:db:
         6e:1d:d5:fd:d7:1d:ee:29:c3:11:85:94:07:0d:f6:8b:7f:c6:
         35:39:08:74:87:3c:35:28:18:7c:dc:71:6c:e7:6c:a6:34:77:
         27:e7:0a:a8:dc:cf:b7:73:3c:45:b0:26:c3:09:d6:f9:ce:70:
         5a:7c:eb:5e:a5:60:97:55:f2:e2:87:8c:96:00:03:a9:20:2a:
         4d:b3:10:96:26:1c:c8:dc:58:30:62:95:05:a5:45:d8:07:d2:
         0d:47:a9:e8:2e:d0:75:f1:36:c1:d1:ca:9a:2e:5d:75:f7:69:
         3e:00:ae:9d
-----BEGIN CERTIFICATE-----
MIICvDCCAaQCCQD1oZEokxv3fTANBgkqhkiG9w0BAQUFADAgMR4wHAYDVQQDDBUy
MDQ4IFJTQSBUZXN0IFJvb3QgQ0EwHhcNMTMwMTIzMjM1MTA1WhcNMjMwMTIxMjM1
MTA1WjAgMR4wHAYDVQQDDBUyMDQ4IFJTQSBUZXN0IFJvb3QgQ0EwggEiMA0GCSqG
SIb3DQEBAQUAA4IBDwAwggEKAoIBAQCzhvnsOfVjGxYXyfoEGjIb2P8BfFUvkGba
voq2HmitCGDcY0DDnPwX6Vsfv6DH3kJ92M97Vp7HF2VlRcXgsIDJirKlo26vFJZW
mhKxK9bv5gN5lnCbawGeQmYfjUu7x2AJ3y/MtpIyWJEtgMUM1eCnSB5aOuBoNGfA
Z1kvDf1TTF4VKizCuo4eYYaIzIR0nwXtexDCtdxXj5/MraS9oJeQKqiO/OMTLe+m
a0FUSmDT1hiPTk/720LDXxRWzegp0fWbVWbB1TzAawQaqFGJNslD6/ZdT3Q7Tf+c
mwBJMYy7wylJnghqK0GgdZVELShu6/lPbC/bIzfv8io7XuTkCuiNAgMBAAEwDQYJ
KoZIhvcNAQEFBQADggEBAEmxl0hy3PuXVvjngIGevkuaathesFmhRWX4Ha3D3kHJ
MxdmRzZUfzzohKCBQHl6TwkciBHkt7mx70N7cGchgZyHULAf9voopGLlfeQzHFAR
fWFg5LuVug2V6KNEB1hHyOJX3KaAEmKkpHOhm/xr2k1ERIz8wAOyakGQzdtTFwV0
fd06iMbsXdSANyJ/sNLr224d1f3XHe4pwxGFlAcN9ot/xjU5CHSHPDUoGHzccWzn
bKY0dyfnCqjcz7dzPEWwJsMJ1vnOcFp8616lYJdV8uKHjJYAA6kgKk2zEJYmHMjc
WDBilQWlRdgH0g1Hqegu0HXxNsHRypouXXX3aT4Arp0=
-----END CERTIFICATE-----
