-----BEGIN PRIVATE KEY-----
MIIEvwIBADANBgkqhkiG9w0BAQEFAASCBKkwggSlAgEAAoIBAQDcLvSySLaCEIdT
Q+Ahzoi//Ai4d2IawA84yV42iHR/zlTeTKIifpVp1KH8VJ4smC6/KKtkfnLWljxp
9dIjHMLrTf4nD6gtgMEJdmmz++py9X9cuS9TJ79k1V6BlnzU4R39pbl9KF5BOM2Q
AvGoiODRr+B5BpERqImtfzQ3iQcgGoAvbclJNtlBl6r40F/VW4+mpPMjo1OJSYRd
2z2ILq8Hi1eiW9AKd4UJ3IsdU9lwm9SfNQyhIi68KfzxaWohSD/wFqz83Y/1nxlB
2KkJ4XStd2uMQ0ymxM4ocDl7/MiaM/VrJG2PM76Bl4Wv7GCngcw6MFvy18mtVwRG
SxJJNx7TAgMBAAECggEAMfw+9NJpDHHwJsj78vDOPrday3Xewa/kRMICL2Me/3y5
65V+IVKXXOU2uPAE0J7jzeXPswq5y1lj8bIquGnpHj4geoGlbl8Sc7F8Ia4I9Xwi
I8yun7QgUSXXRJgDUtigVFrxFya47xmUISNp9RbN4wyIazFAcb/PMaH1Gr5y7ahq
je2YV5wvG2YG18LJrSrAYmxEVUqECFv0B8fQS23pbjJlzJdtBVheRz/uWuAQ8jma
I1tI2sT/NKikMhUwqdTWZSkuOEMKmB18K/rxFpKLQYx6vo8irwvk2pZHAHTV/WYO
jlqkXBMviHAUHBoOVG8DeiVlBNnOY8+Ef94ngaqw4QKBgQD5vzh7UcvYwdQbsOUO
NiQKBgt1FpE4nGglR3i0inxIYqkkmEDMthvzYEZPCVQsNHJPy92O5mjp6tNb1NcN
T9faJ7USa3Cse+z7/dNgnu7BFfW3sahLzvaS4rMY5N0a3LA9aneUwRpj1JALXOnq
CgN0zPea92AJyZkvq3d6gMnt2wKBgQDhsj6gOk7ojf3RL5htU0s/nFI1pzo1TiHj
uHlQvQfnLPTZ9gWC66YUghOtfYCgSmZa7Zvmp4YP9wYE1CR34j3FltVhatOQG0yF
gzf0htQ/r7z1A8QJcXNh4DNGZdjHnXDK0dFzRhJFlknrnAgZhN1tQlPrlObzp1kQ
L0YhgfqwaQKBgQCPqZrQ/W14Y48i2q/4a9ZxWabPlMq2uOoDv8hEeoEhlndb0KU9
3OfZKSFop6Iex5CWLFxnrkzdejJY2edXBf3RxROY4+rtnV/mWM12ABaxRXOSVoTM
DuKx/ewuPsCdiiNrQMpG7InEsWqmzqzT7yyrzJgGMZSyLKCM1mKlOl5uDwKBgQCK
kzWOjZ6LfTs9qFqPrZfDO8jiNoYv2oRGXKroHthuYZUJCtyBcQytBNzuJePHB0dn
RwL1ESDoRoTEjDjD/v5shlsHkF7L2WcXhuThV7OUUuPTEHfaUHVGwDDbZYc/sPRj
I4bVn01yun8ykcALYx/NiO8b83YGXlb57/zAcB0rGQKBgQC7P+qSkSwQsmjnQw1z
1Or3v4eojlUHF3FXsGb13TAPKBCtnENlyIk51AnfC0ieBYsVOycVMW5RuNcTEF3C
Sx/hBpkPgz4UgfFtBwgT+N84Cp0vAZ7YnP4tSu2kvm0Ehz92pUZZmqCNawp8vjjS
zJB+cmCxvRYtVgKCr7Q8NVUsuA==
-----END PRIVATE KEY-----
Certificate:
    Data:
        Version: 3 (0x2)
        Serial Number: 236 (0xec)
    Signature Algorithm: sha1WithRSAEncryption
        Issuer: CN=Test Root CA
        Validity
            Not Before: Jan  1 00:00:00 2006 GMT
            Not After : Jan  1 00:00:00 2007 GMT
        Subject: C=US, ST=California, L=Mountain View, O=Test CA, CN=127.0.0.1
        Subject Public Key Info:
            Public Key Algorithm: rsaEncryption
                Public-Key: (2048 bit)
                Modulus:
                    00:dc:2e:f4:b2:48:b6:82:10:87:53:43:e0:21:ce:
                    88:bf:fc:08:b8:77:62:1a:c0:0f:38:c9:5e:36:88:
                    74:7f:ce:54:de:4c:a2:22:7e:95:69:d4:a1:fc:54:
                    9e:2c:98:2e:bf:28:ab:64:7e:72:d6:96:3c:69:f5:
                    d2:23:1c:c2:eb:4d:fe:27:0f:a8:2d:80:c1:09:76:
                    69:b3:fb:ea:72:f5:7f:5c:b9:2f:53:27:bf:64:d5:
                    5e:81:96:7c:d4:e1:1d:fd:a5:b9:7d:28:5e:41:38:
                    cd:90:02:f1:a8:88:e0:d1:af:e0:79:06:91:11:a8:
                    89:ad:7f:34:37:89:07:20:1a:80:2f:6d:c9:49:36:
                    d9:41:97:aa:f8:d0:5f:d5:5b:8f:a6:a4:f3:23:a3:
                    53:89:49:84:5d:db:3d:88:2e:af:07:8b:57:a2:5b:
                    d0:0a:77:85:09:dc:8b:1d:53:d9:70:9b:d4:9f:35:
                    0c:a1:22:2e:bc:29:fc:f1:69:6a:21:48:3f:f0:16:
                    ac:fc:dd:8f:f5:9f:19:41:d8:a9:09:e1:74:ad:77:
                    6b:8c:43:4c:a6:c4:ce:28:70:39:7b:fc:c8:9a:33:
                    f5:6b:24:6d:8f:33:be:81:97:85:af:ec:60:a7:81:
                    cc:3a:30:5b:f2:d7:c9:ad:57:04:46:4b:12:49:37:
                    1e:d3
                Exponent: 65537 (0x10001)
        X509v3 extensions:
            X509v3 Basic Constraints: critical
                CA:FALSE
            X509v3 Subject Key Identifier: 
                9C:80:C5:A0:E6:0F:7F:D7:E2:6F:BE:D8:F1:13:F8:84:BD:D8:5B:B6
            X509v3 Authority Key Identifier: 
                keyid:2B:88:93:E1:D2:54:50:F4:B8:A4:20:BD:B1:79:E6:0B:AA:EB:EC:1A

            X509v3 Extended Key Usage: 
                TLS Web Server Authentication, TLS Web Client Authentication
            X509v3 Subject Alternative Name: 
                IP Address:127.0.0.1
    Signature Algorithm: sha1WithRSAEncryption
         5d:0f:99:23:45:8b:a2:24:f7:b7:bb:f7:0a:e9:f9:52:5a:e8:
         82:72:ee:b5:86:0d:74:a0:cc:19:32:b0:f9:61:bf:36:26:a4:
         94:8c:59:29:68:1e:f4:75:3b:fe:df:8c:5a:d8:29:c0:9f:45:
         c2:4b:47:1b:15:07:cc:4b:08:26:bb:41:44:49:0a:75:48:06:
         4a:e1:e1:51:f5:b6:be:5d:5a:d9:b4:f9:41:64:4d:a9:3e:97:
         6f:c0:1f:af:ca:dc:24:11:ec:e0:d0:be:a7:13:11:9f:76:72:
         16:95:53:e5:22:6f:44:89:e1:7a:c3:d7:39:7d:fc:5d:40:94:
         9a:aa:94:e5:f5:2b:4f:63:c1:34:fe:b7:f6:85:53:32:77:97:
         3c:74:11:67:cd:27:b5:e6:cb:8a:18:10:c0:f7:0a:e2:9f:5d:
         88:ff:82:54:43:41:dc:51:33:f1:c8:6d:09:c6:25:f0:53:3f:
         7e:04:ca:b4:07:f9:c4:9a:0d:ae:65:79:d7:42:e3:6b:1c:7f:
         59:67:19:f5:af:d0:b9:f3:73:04:bf:55:1d:ed:49:88:52:f4:
         dc:3b:fb:a3:56:f8:29:fc:99:3e:6e:7f:9b:12:31:4b:24:c7:
         a6:a2:95:2f:c3:51:02:66:8e:8e:dc:af:cb:10:e7:34:48:62:
         14:db:1d:47
-----BEGIN CERTIFICATE-----
MIIDdDCCAlygAwIBAgICAOwwDQYJKoZIhvcNAQEFBQAwFzEVMBMGA1UEAwwMVGVz
dCBSb290IENBMB4XDTA2MDEwMTAwMDAwMFoXDTA3MDEwMTAwMDAwMFowYDELMAkG
A1UEBhMCVVMxEzARBgNVBAgMCkNhbGlmb3JuaWExFjAUBgNVBAcMDU1vdW50YWlu
IFZpZXcxEDAOBgNVBAoMB1Rlc3QgQ0ExEjAQBgNVBAMMCTEyNy4wLjAuMTCCASIw
DQYJKoZIhvcNAQEBBQADggEPADCCAQoCggEBANwu9LJItoIQh1ND4CHOiL/8CLh3
YhrADzjJXjaIdH/OVN5MoiJ+lWnUofxUniyYLr8oq2R+ctaWPGn10iMcwutN/icP
qC2AwQl2abP76nL1f1y5L1Mnv2TVXoGWfNThHf2luX0oXkE4zZAC8aiI4NGv4HkG
kRGoia1/NDeJByAagC9tyUk22UGXqvjQX9Vbj6ak8yOjU4lJhF3bPYgurweLV6Jb
0Ap3hQncix1T2XCb1J81DKEiLrwp/PFpaiFIP/AWrPzdj/WfGUHYqQnhdK13a4xD
TKbEzihwOXv8yJoz9WskbY8zvoGXha/sYKeBzDowW/LXya1XBEZLEkk3HtMCAwEA
AaOBgDB+MAwGA1UdEwEB/wQCMAAwHQYDVR0OBBYEFJyAxaDmD3/X4m++2PET+IS9
2Fu2MB8GA1UdIwQYMBaAFCuIk+HSVFD0uKQgvbF55guq6+waMB0GA1UdJQQWMBQG
CCsGAQUFBwMBBggrBgEFBQcDAjAPBgNVHREECDAGhwR/AAABMA0GCSqGSIb3DQEB
BQUAA4IBAQBdD5kjRYuiJPe3u/cK6flSWuiCcu61hg10oMwZMrD5Yb82JqSUjFkp
aB70dTv+34xa2CnAn0XCS0cbFQfMSwgmu0FESQp1SAZK4eFR9ba+XVrZtPlBZE2p
PpdvwB+vytwkEezg0L6nExGfdnIWlVPlIm9EieF6w9c5ffxdQJSaqpTl9StPY8E0
/rf2hVMyd5c8dBFnzSe15suKGBDA9wrin12I/4JUQ0HcUTPxyG0JxiXwUz9+BMq0
B/nEmg2uZXnXQuNrHH9ZZxn1r9C583MEv1Ud7UmIUvTcO/ujVvgp/Jk+bn+bEjFL
JMemopUvw1ECZo6O3K/LEOc0SGIU2x1H
-----END CERTIFICATE-----
