-----BEGIN RSA PRIVATE KEY-----
MIIEpAIBAAKCAQEAvYF0kDZ7Nd/z6hjKuWSoWIWQKt4ivpoLl73+YZgq5S3PnrwM
I14hTxmttT6c1KoFWnFOt5mBp2s1CSJDhL7pccZwO2+IxCu6CrjBfEK+P9gLiIdT
gnujctRCU/N9y4RQYDQchmU2++ZHT2Fgw5t7SlduLKyQ7kcNspLiu+h84nQ+co8C
kUHoLmAagIN2uIf9818E3VaX8xEEcJ5I4pblZqOF3bL2kR7ow6Z5lLfkbiU4J6N5
mZxTuovJz9Ze4MDGBZpgRnMlVqQCPNw21WASD8n5TsAeK3Rg7wMwilN+yArrK5vb
o2MDhbi6yv2T/fOPh5cRJNUR81Csuh+d1+QwfQIDAQABAoIBAA6ExYZq9iOZhdlw
js+HW7J0gSgXnrfVm3/DqaKWgurOCLMTmyZ2hrzFrd5N7rwITqKwPaSpWRqXhxet
DVk1OzNhTaXwFJ1a8ET0BLbdci/4AGI0Y/yCNnKMuowuAnw+Jd5I/8p4JK9F5D67
qisyVU7LxgAcNHpc7Tq6MC7PUAoVVd7uPy0NtSD3JikwYWHUv+BtOm8P5jugy8Kr
qMN0c0/qsZ0SedfT1k/IIfu79DZZ5hBl5rUhgMYjuycd0Hi5qOa7o2fdVXJh2eLo
HY3cQTymWlibutABv//P+NsteyrXXFkcmPjNXHy5WpvmT2RR5Hxx57hJck/7xVjv
u8B7AgECgYEA9vLjrUeO2Wei5BsL9I5xB+epwaXAUsaugnRXePG5i2HhCRfOeU9f
PKuv0F4yuHNre9j1w5X/5WzxnFhDSb1QLbFXlgFCltL5a3RypygC9B0r7VFQCaLI
ODjX5h06PZq6oLLiLSyVlOSrcPXNJLuhMqNnHuOUacUtOIx4B2vpwP0CgYEAxHOU
YlMwUhgmPKZ/R7lNYMAKKUAiuKEkFM0K1K0/GnizhYDnc2atxORk54ZD6aGYuf9y
xBWmOZobNTmGw9bnQhePai/xHUoJgs8KWN5e8pBJXAouL12pqRC4sQCIVc9R3J+7
djTPTco0oexkUsbe1rr4hCqoR9iUePxl7wY5BYECgYEA8nA6fV+HKoDINlEnR4yg
Aza4PdjQG3Pa11AIoEAP/Hq3RwoMNqRpx1J2ZIZWHSeTGh9CCCY297Ig8XDlfntR
P8qfRjEugovVOl00Qk7Rt378JRxzC0K4dhm4O73t85T4K9PyoI7ouyhT964ZHDro
YqJxFq4ugjiF0MJ3BDI5ZrECgYAItf9MZNftq/h2FAPs0ECoG5vXvGpNuYd6DKWA
TLZRnCyJrO+WZGUsJ9x5j7CPOYUmKjeSjksynqy6LXTWVj8m5RiM4tdULyZA0KFq
02FubAt0s1bc7tBJGN63qohhFbJRkBul4C2ZC3BOBcdlDEBxURUX9zRDC016F+cF
NEdvAQKBgQCtJhaEt1dzbB0qYEZz7kYr3QP1hz/6XfnAd8wmJNQQQ8yctNlJc+dH
Foo3qwU2uJWFbByBxIvkmCDTAOCJwOONP/MhigvDQth/sa+TbY6y39XywL0TyG/p
X19RWD9TYNG7C9y9Z8Jcz+u9iCd5enqLYw7Qle9gq3jwK1GXsV5zEQ==
-----END RSA PRIVATE KEY-----
Certificate:
    Data:
        Version: 3 (0x2)
        Serial Number: 4096 (0x1000)
    Signature Algorithm: sha1WithRSAEncryption
        Issuer: CN=B CA
        Validity
            Not Before: Feb  4 04:25:58 2014 GMT
            Not After : Feb  2 04:25:58 2024 GMT
        Subject: C=US, ST=California, L=Mountain View, O=Test CA, CN=127.0.0.1
        Subject Public Key Info:
            Public Key Algorithm: rsaEncryption
                Public-Key: (2048 bit)
                Modulus:
                    00:bd:81:74:90:36:7b:35:df:f3:ea:18:ca:b9:64:
                    a8:58:85:90:2a:de:22:be:9a:0b:97:bd:fe:61:98:
                    2a:e5:2d:cf:9e:bc:0c:23:5e:21:4f:19:ad:b5:3e:
                    9c:d4:aa:05:5a:71:4e:b7:99:81:a7:6b:35:09:22:
                    43:84:be:e9:71:c6:70:3b:6f:88:c4:2b:ba:0a:b8:
                    c1:7c:42:be:3f:d8:0b:88:87:53:82:7b:a3:72:d4:
                    42:53:f3:7d:cb:84:50:60:34:1c:86:65:36:fb:e6:
                    47:4f:61:60:c3:9b:7b:4a:57:6e:2c:ac:90:ee:47:
                    0d:b2:92:e2:bb:e8:7c:e2:74:3e:72:8f:02:91:41:
                    e8:2e:60:1a:80:83:76:b8:87:fd:f3:5f:04:dd:56:
                    97:f3:11:04:70:9e:48:e2:96:e5:66:a3:85:dd:b2:
                    f6:91:1e:e8:c3:a6:79:94:b7:e4:6e:25:38:27:a3:
                    79:99:9c:53:ba:8b:c9:cf:d6:5e:e0:c0:c6:05:9a:
                    60:46:73:25:56:a4:02:3c:dc:36:d5:60:12:0f:c9:
                    f9:4e:c0:1e:2b:74:60:ef:03:30:8a:53:7e:c8:0a:
                    eb:2b:9b:db:a3:63:03:85:b8:ba:ca:fd:93:fd:f3:
                    8f:87:97:11:24:d5:11:f3:50:ac:ba:1f:9d:d7:e4:
                    30:7d
                Exponent: 65537 (0x10001)
        X509v3 extensions:
            X509v3 Basic Constraints: critical
                CA:FALSE
            X509v3 Subject Key Identifier: 
                2C:58:4E:D7:58:62:F8:D6:BF:BE:80:5C:04:3A:39:B1:41:8C:D3:D7
            X509v3 Authority Key Identifier: 
                keyid:CD:18:27:4F:88:B1:26:85:B9:8F:9C:00:A4:F8:1A:FD:01:86:5E:EC

            X509v3 Extended Key Usage: 
                TLS Web Server Authentication, TLS Web Client Authentication
    Signature Algorithm: sha1WithRSAEncryption
         0d:09:9b:f0:11:81:5a:5d:f1:85:73:fb:f2:c8:bc:82:99:27:
         fd:58:c7:6a:d6:28:f1:09:63:4e:61:fd:68:3a:23:0a:10:fe:
         58:7b:20:a3:7a:69:e6:74:55:5c:14:4f:ec:d7:e2:10:aa:8b:
         a6:3f:99:c1:ef:bb:48:a9:42:b8:9a:8e:65:75:7b:cc:5c:bd:
         e4:c0:63:e2:d1:6b:38:32:5f:33:b3:fc:0c:33:b0:8b:dd:10:
         54:15:99:2d:c4:62:68:3f:af:3f:e2:d9:52:33:d4:31:4c:ed:
         c7:28:76:bb:21:6b:b9:41:fb:88:40:52:e1:52:76:31:af:d8:
         a6:63:d1:d9:a5:e4:95:39:74:a8:73:f5:b0:c4:4e:bf:ef:a1:
         87:2e:94:a0:bd:cc:e3:90:45:5c:5a:18:15:0d:09:47:45:0f:
         1e:d7:cf:d3:8d:c6:b0:54:c4:5f:21:50:5c:b5:0d:eb:c3:15:
         3d:ee:88:fa:b4:80:93:4d:2e:00:9e:46:b6:fb:e8:64:32:51:
         8a:35:81:7a:d3:71:73:8d:2a:27:d4:57:2f:66:4c:fc:99:81:
         06:66:1f:5b:e6:a4:e5:35:eb:f3:e5:e3:f3:31:78:fe:b0:03:
         f9:5d:77:97:70:d7:53:52:50:df:15:5b:3e:fc:7e:9a:1f:6a:
         ce:c2:37:2f
-----BEGIN CERTIFICATE-----
MIIDWjCCAkKgAwIBAgICEAAwDQYJKoZIhvcNAQEFBQAwDzENMAsGA1UEAwwEQiBD
QTAeFw0xNDAyMDQwNDI1NThaFw0yNDAyMDIwNDI1NThaMGAxCzAJBgNVBAYTAlVT
MRMwEQYDVQQIDApDYWxpZm9ybmlhMRYwFAYDVQQHDA1Nb3VudGFpbiBWaWV3MRAw
DgYDVQQKDAdUZXN0IENBMRIwEAYDVQQDDAkxMjcuMC4wLjEwggEiMA0GCSqGSIb3
DQEBAQUAA4IBDwAwggEKAoIBAQC9gXSQNns13/PqGMq5ZKhYhZAq3iK+mguXvf5h
mCrlLc+evAwjXiFPGa21PpzUqgVacU63mYGnazUJIkOEvulxxnA7b4jEK7oKuMF8
Qr4/2AuIh1OCe6Ny1EJT833LhFBgNByGZTb75kdPYWDDm3tKV24srJDuRw2ykuK7
6HzidD5yjwKRQeguYBqAg3a4h/3zXwTdVpfzEQRwnkjiluVmo4XdsvaRHujDpnmU
t+RuJTgno3mZnFO6i8nP1l7gwMYFmmBGcyVWpAI83DbVYBIPyflOwB4rdGDvAzCK
U37ICusrm9ujYwOFuLrK/ZP984+HlxEk1RHzUKy6H53X5DB9AgMBAAGjbzBtMAwG
A1UdEwEB/wQCMAAwHQYDVR0OBBYEFCxYTtdYYvjWv76AXAQ6ObFBjNPXMB8GA1Ud
IwQYMBaAFM0YJ0+IsSaFuY+cAKT4Gv0Bhl7sMB0GA1UdJQQWMBQGCCsGAQUFBwMB
BggrBgEFBQcDAjANBgkqhkiG9w0BAQUFAAOCAQEADQmb8BGBWl3xhXP78si8gpkn
/VjHatYo8QljTmH9aDojChD+WHsgo3pp5nRVXBRP7NfiEKqLpj+Zwe+7SKlCuJqO
ZXV7zFy95MBj4tFrODJfM7P8DDOwi90QVBWZLcRiaD+vP+LZUjPUMUztxyh2uyFr
uUH7iEBS4VJ2Ma/YpmPR2aXklTl0qHP1sMROv++hhy6UoL3M45BFXFoYFQ0JR0UP
HtfP043GsFTEXyFQXLUN68MVPe6I+rSAk00uAJ5GtvvoZDJRijWBetNxc40qJ9RX
L2ZM/JmBBmYfW+ak5TXr8+Xj8zF4/rAD+V13l3DXU1JQ3xVbPvx+mh9qzsI3Lw==
-----END CERTIFICATE-----
Certificate:
    Data:
        Version: 3 (0x2)
        Serial Number: 4097 (0x1001)
    Signature Algorithm: sha1WithRSAEncryption
        Issuer: CN=C CA
        Validity
            Not Before: Feb  4 04:25:58 2014 GMT
            Not After : Feb  2 04:25:58 2024 GMT
        Subject: CN=B CA
        Subject Public Key Info:
            Public Key Algorithm: rsaEncryption
                Public-Key: (2048 bit)
                Modulus:
                    00:ab:18:b1:0e:c2:f9:61:1a:13:c4:95:b8:65:d8:
                    cb:36:2f:72:e8:e1:97:44:1d:0d:55:a0:cc:02:12:
                    04:a4:78:f6:df:c3:6f:c9:b8:50:15:d8:5c:21:ed:
                    8f:c4:e7:db:81:da:fe:01:60:39:63:99:e4:04:dc:
                    15:ea:59:6b:35:da:1a:e3:3e:dd:f0:71:8f:64:79:
                    1a:30:b1:be:5a:43:9c:88:1a:a0:26:2f:5d:6c:b6:
                    8b:b8:6d:10:b0:97:f4:a1:d3:7b:56:3d:dd:12:19:
                    a3:5e:02:24:9e:19:8e:d2:0b:e2:ea:8e:a2:cc:a1:
                    8e:f0:49:e1:81:ae:3a:a6:71:d5:e8:e4:80:27:01:
                    58:66:8c:bd:a0:4f:08:01:59:5c:c3:e3:d5:6f:49:
                    73:24:66:f5:25:b3:9e:a1:29:21:de:e9:d5:ad:b0:
                    1d:fc:b7:4c:f7:5a:9a:2b:5a:2c:af:07:aa:c2:82:
                    5a:36:06:1d:27:2d:90:c7:45:1e:7b:f4:7a:8a:fe:
                    90:c1:79:c9:8f:4e:67:52:48:ea:0b:dd:d7:fe:84:
                    54:47:2f:d9:d0:ca:11:07:59:b0:90:08:0b:76:a2:
                    ec:30:a5:45:aa:d7:61:39:84:43:33:97:22:b6:45:
                    c8:e8:ab:73:5f:79:a8:13:55:2f:71:a2:c9:21:aa:
                    9b:df
                Exponent: 65537 (0x10001)
        X509v3 extensions:
            X509v3 Basic Constraints: critical
                CA:TRUE
            X509v3 Subject Key Identifier: 
                CD:18:27:4F:88:B1:26:85:B9:8F:9C:00:A4:F8:1A:FD:01:86:5E:EC
            X509v3 Key Usage: critical
                Certificate Sign, CRL Sign
    Signature Algorithm: sha1WithRSAEncryption
         00:80:9b:99:4b:81:b1:76:49:5c:f2:99:ef:88:93:18:75:68:
         eb:26:9e:87:95:b6:91:23:c0:b5:78:58:96:97:9c:27:38:fa:
         f3:e5:c3:a2:34:40:91:6d:45:2c:7f:63:51:98:5b:53:4b:91:
         ce:0f:e2:32:63:e7:e5:f9:21:6b:b7:f9:94:ac:33:13:5c:27:
         9b:98:e7:7f:44:50:29:98:68:81:53:6b:a1:43:d8:04:40:cb:
         f2:cf:18:39:a5:24:c9:88:b6:b7:76:cb:dd:18:2e:1d:24:3e:
         d3:59:e9:04:48:9d:59:0c:0f:d0:79:6a:93:7d:2b:b9:8e:50:
         34:00:0d:48:ae:10:bd:80:04:74:da:06:27:15:ad:88:ec:36:
         61:51:80:fe:6b:1d:46:37:0e:ea:23:60:c1:79:bf:03:2a:d2:
         80:9e:2c:10:3a:bc:2d:50:6e:f7:f9:d5:ec:11:d9:b4:62:bc:
         09:2c:05:31:06:bf:b9:e1:d5:1e:02:a9:1a:c5:c4:13:bf:b7:
         8e:6a:08:51:57:af:db:7b:09:74:bd:c7:bd:3c:de:0a:51:8a:
         fe:82:0b:4b:34:74:10:4b:4b:34:fd:42:28:48:10:db:5d:6d:
         64:80:b1:3c:5c:04:86:32:6c:25:87:db:23:dc:e4:42:e4:71:
         f9:b1:88:74
-----BEGIN CERTIFICATE-----
MIIC3DCCAcSgAwIBAgICEAEwDQYJKoZIhvcNAQEFBQAwDzENMAsGA1UEAwwEQyBD
QTAeFw0xNDAyMDQwNDI1NThaFw0yNDAyMDIwNDI1NThaMA8xDTALBgNVBAMMBEIg
Q0EwggEiMA0GCSqGSIb3DQEBAQUAA4IBDwAwggEKAoIBAQCrGLEOwvlhGhPElbhl
2Ms2L3Lo4ZdEHQ1VoMwCEgSkePbfw2/JuFAV2Fwh7Y/E59uB2v4BYDljmeQE3BXq
WWs12hrjPt3wcY9keRowsb5aQ5yIGqAmL11stou4bRCwl/Sh03tWPd0SGaNeAiSe
GY7SC+LqjqLMoY7wSeGBrjqmcdXo5IAnAVhmjL2gTwgBWVzD49VvSXMkZvUls56h
KSHe6dWtsB38t0z3WporWiyvB6rCglo2Bh0nLZDHRR579HqK/pDBecmPTmdSSOoL
3df+hFRHL9nQyhEHWbCQCAt2ouwwpUWq12E5hEMzlyK2Rcjoq3NfeagTVS9xoskh
qpvfAgMBAAGjQjBAMA8GA1UdEwEB/wQFMAMBAf8wHQYDVR0OBBYEFM0YJ0+IsSaF
uY+cAKT4Gv0Bhl7sMA4GA1UdDwEB/wQEAwIBBjANBgkqhkiG9w0BAQUFAAOCAQEA
AICbmUuBsXZJXPKZ74iTGHVo6yaeh5W2kSPAtXhYlpecJzj68+XDojRAkW1FLH9j
UZhbU0uRzg/iMmPn5fkha7f5lKwzE1wnm5jnf0RQKZhogVNroUPYBEDL8s8YOaUk
yYi2t3bL3RguHSQ+01npBEidWQwP0Hlqk30ruY5QNAANSK4QvYAEdNoGJxWtiOw2
YVGA/msdRjcO6iNgwXm/AyrSgJ4sEDq8LVBu9/nV7BHZtGK8CSwFMQa/ueHVHgKp
GsXEE7+3jmoIUVev23sJdL3HvTzeClGK/oILSzR0EEtLNP1CKEgQ211tZICxPFwE
hjJsJYfbI9zkQuRx+bGIdA==
-----END CERTIFICATE-----
Certificate:
    Data:
        Version: 3 (0x2)
        Serial Number: 4099 (0x1003)
    Signature Algorithm: sha1WithRSAEncryption
        Issuer: CN=D Root CA
        Validity
            Not Before: Feb  4 04:25:58 2014 GMT
            Not After : Feb  2 04:25:58 2024 GMT
        Subject: CN=C CA
        Subject Public Key Info:
            Public Key Algorithm: rsaEncryption
                Public-Key: (2048 bit)
                Modulus:
                    00:ca:21:76:fd:8b:0f:24:ba:dc:ab:cd:0e:31:94:
                    01:90:57:79:18:3c:58:61:f5:7e:b7:2f:e6:46:d3:
                    41:e8:4e:29:29:a8:9d:eb:d6:df:69:d5:b1:10:de:
                    6b:17:2d:8d:8a:1c:d7:dc:80:85:74:c2:7a:6e:a6:
                    75:7a:2a:76:42:fb:65:6b:8c:a9:2f:c0:5e:76:1e:
                    bc:35:85:b2:4b:35:a4:97:33:15:76:7d:4f:6e:d0:
                    3b:45:04:fe:dc:a0:11:67:15:2d:3a:c3:07:c6:db:
                    f2:89:25:92:5e:db:70:bd:88:e9:f0:c7:54:6f:8e:
                    ab:cf:ce:ca:ad:bb:44:72:bf:e9:b5:ab:ba:68:15:
                    6d:1e:e1:66:d6:60:d8:bd:dc:ab:d3:e8:2f:4c:ee:
                    29:46:36:c7:b1:61:af:20:19:cc:98:1c:78:5f:4d:
                    97:7a:de:2f:d9:fd:f0:b8:47:34:ff:ed:73:07:eb:
                    90:54:11:e2:1b:8e:68:5a:c1:72:a9:af:df:e9:f1:
                    f5:ca:0e:72:03:90:1b:af:64:d6:ee:ce:67:57:1b:
                    fb:c7:f1:c2:5c:97:81:cd:d6:22:7c:26:bf:cd:6a:
                    b9:99:5f:58:63:5f:ce:05:1c:7d:f1:a9:d3:f8:4c:
                    fe:10:82:a4:14:2c:67:97:6c:82:2f:98:38:83:50:
                    bf:71
                Exponent: 65537 (0x10001)
        X509v3 extensions:
            X509v3 Basic Constraints: critical
                CA:TRUE
            X509v3 Subject Key Identifier: 
                F5:87:AF:4C:B3:4A:88:7F:EB:92:D3:C7:28:78:91:D9:02:4A:71:DF
            X509v3 Key Usage: critical
                Certificate Sign, CRL Sign
    Signature Algorithm: sha1WithRSAEncryption
         7a:34:4b:a9:c4:e0:82:72:8f:2d:a6:3e:c7:5a:60:61:18:d4:
         29:34:96:05:1e:9c:16:23:30:84:2b:72:10:3f:27:cd:0a:e1:
         23:0a:fe:6d:86:08:fb:d2:3f:fc:8d:d1:1f:c5:44:bb:89:dc:
         ae:27:c3:20:99:a3:af:d8:ec:d6:cf:07:e6:59:ae:f4:26:18:
         39:78:44:24:4e:aa:93:c2:27:d3:05:ac:06:94:94:8a:d9:fc:
         5d:d8:cb:b9:71:14:c8:95:be:29:ee:65:cb:ff:3e:70:05:ef:
         f9:12:6b:11:cb:37:6d:2d:8a:0e:9d:0d:3b:d8:eb:94:a2:f7:
         d9:c6:0e:56:18:64:69:e6:3f:3c:64:da:37:c8:f8:f9:dd:1d:
         20:e1:af:61:54:09:5f:64:ce:b0:3e:38:fe:fc:20:23:96:d8:
         9b:d3:08:23:34:c9:0e:f9:ef:04:96:4a:c8:4c:6e:22:ff:95:
         52:db:a8:7f:58:50:eb:10:ca:6a:7b:44:fc:7b:e0:d0:9c:f1:
         3d:5a:c6:26:b4:8b:8a:cb:c9:40:94:f6:c8:14:5a:c8:7f:53:
         79:a9:d1:83:21:36:a2:ee:3a:50:45:d6:2d:a4:47:ea:67:94:
         ec:5f:e5:c2:1f:0a:a5:1f:7a:62:ce:d7:b0:b2:bb:e6:af:ab:
         d5:ed:f6:39
-----BEGIN CERTIFICATE-----
MIIC4TCCAcmgAwIBAgICEAMwDQYJKoZIhvcNAQEFBQAwFDESMBAGA1UEAwwJRCBS
b290IENBMB4XDTE0MDIwNDA0MjU1OFoXDTI0MDIwMjA0MjU1OFowDzENMAsGA1UE
AwwEQyBDQTCCASIwDQYJKoZIhvcNAQEBBQADggEPADCCAQoCggEBAMohdv2LDyS6
3KvNDjGUAZBXeRg8WGH1frcv5kbTQehOKSmonevW32nVsRDeaxctjYoc19yAhXTC
em6mdXoqdkL7ZWuMqS/AXnYevDWFsks1pJczFXZ9T27QO0UE/tygEWcVLTrDB8bb
8oklkl7bcL2I6fDHVG+Oq8/Oyq27RHK/6bWrumgVbR7hZtZg2L3cq9PoL0zuKUY2
x7FhryAZzJgceF9Nl3reL9n98LhHNP/tcwfrkFQR4huOaFrBcqmv3+nx9coOcgOQ
G69k1u7OZ1cb+8fxwlyXgc3WInwmv81quZlfWGNfzgUcffGp0/hM/hCCpBQsZ5ds
gi+YOINQv3ECAwEAAaNCMEAwDwYDVR0TAQH/BAUwAwEB/zAdBgNVHQ4EFgQU9Yev
TLNKiH/rktPHKHiR2QJKcd8wDgYDVR0PAQH/BAQDAgEGMA0GCSqGSIb3DQEBBQUA
A4IBAQB6NEupxOCCco8tpj7HWmBhGNQpNJYFHpwWIzCEK3IQPyfNCuEjCv5thgj7
0j/8jdEfxUS7idyuJ8MgmaOv2OzWzwfmWa70Jhg5eEQkTqqTwifTBawGlJSK2fxd
2Mu5cRTIlb4p7mXL/z5wBe/5EmsRyzdtLYoOnQ072OuUovfZxg5WGGRp5j88ZNo3
yPj53R0g4a9hVAlfZM6wPjj+/CAjltib0wgjNMkO+e8ElkrITG4i/5VS26h/WFDr
EMpqe0T8e+DQnPE9WsYmtIuKy8lAlPbIFFrIf1N5qdGDITai7jpQRdYtpEfqZ5Ts
X+XCHwqlH3piztewsrvmr6vV7fY5
-----END CERTIFICATE-----
Certificate:
    Data:
        Version: 3 (0x2)
        Serial Number: 13476701051823430697 (0xbb06dc343a119c29)
    Signature Algorithm: sha1WithRSAEncryption
        Issuer: CN=D Root CA
        Validity
            Not Before: Feb  4 04:25:57 2014 GMT
            Not After : Feb  2 04:25:57 2024 GMT
        Subject: CN=D Root CA
        Subject Public Key Info:
            Public Key Algorithm: rsaEncryption
                Public-Key: (2048 bit)
                Modulus:
                    00:a8:4f:68:60:f8:f7:db:96:c7:0a:33:3a:bb:24:
                    01:ec:06:15:68:9e:33:b1:2c:4e:b6:e0:23:bc:ef:
                    4e:b6:03:09:86:21:72:85:bf:5a:c4:88:54:f8:44:
                    45:a9:aa:7c:74:50:3c:43:5f:c1:e5:0f:59:8c:e2:
                    57:48:8f:d9:d9:89:53:01:4a:24:8b:70:b6:38:5d:
                    d4:e3:14:d3:ba:49:83:a5:b7:31:0f:10:2d:06:40:
                    bc:11:39:53:67:04:21:b2:52:a9:61:66:34:2d:3e:
                    ce:0a:9e:96:e7:60:3d:e4:7a:10:9c:1d:e6:8d:a4:
                    11:20:e9:c5:60:7d:00:d4:03:ff:1b:92:ba:d1:43:
                    44:12:2e:b9:3e:77:0f:98:33:60:e8:df:67:d8:08:
                    2d:1a:b4:62:3e:75:6b:76:b8:a1:d1:8f:09:4d:aa:
                    88:f8:61:90:6c:ce:84:15:85:f8:bd:ba:40:e9:33:
                    22:ed:63:fa:1b:cf:6a:0d:96:91:11:e1:c7:3a:b9:
                    c3:7a:42:d3:78:5c:c7:c7:b1:72:05:63:92:22:28:
                    b7:ea:3c:0a:d0:6d:9c:aa:6d:60:66:29:bb:43:6a:
                    c0:2b:ce:ef:05:5c:7c:d9:8b:c4:9e:65:80:f0:32:
                    67:b9:4b:9c:65:7a:df:62:a2:2e:b4:14:50:15:87:
                    b5:a7
                Exponent: 65537 (0x10001)
        X509v3 extensions:
            X509v3 Basic Constraints: critical
                CA:TRUE
            X509v3 Subject Key Identifier: 
                A6:3C:3F:34:0B:14:89:E3:BF:92:BA:F8:18:0B:E3:C6:31:4C:77:D0
            X509v3 Key Usage: critical
                Certificate Sign, CRL Sign
    Signature Algorithm: sha1WithRSAEncryption
         1e:e6:98:ac:39:4a:f0:c2:c4:70:76:dd:c7:26:2c:61:00:be:
         fb:73:1e:fd:72:d1:25:a0:84:51:ee:e7:76:f6:72:8e:89:8b:
         69:ef:1c:10:ae:ce:4a:29:2b:d6:43:52:3f:32:30:c4:3f:3f:
         2a:3e:c8:af:cc:d8:0d:54:b9:74:ac:0c:9e:43:71:c1:56:88:
         e8:92:a3:40:f4:c0:73:e3:28:bd:93:02:af:c2:1b:66:5e:8c:
         5b:0e:48:55:c6:48:aa:f5:c6:c2:c1:cc:83:ac:59:d2:40:25:
         f9:84:52:8f:57:97:1d:ea:3d:24:26:19:a8:ba:60:1a:dc:bc:
         7d:cc:8d:9a:fc:0f:7f:3d:b8:b4:ef:b9:47:28:0f:07:0b:57:
         ea:3a:12:c8:01:69:8e:49:46:f8:19:cf:ad:69:5a:94:48:f2:
         54:3d:b0:99:02:c8:d6:ff:4e:a7:cf:d1:b4:e5:94:92:ce:3f:
         d1:86:1b:01:6b:51:cd:94:cc:c1:2c:dd:4d:43:c2:e5:cd:21:
         9f:3f:ec:88:b7:e4:9d:4c:f5:55:61:2c:75:f9:4b:f7:2f:ba:
         2f:6f:d9:f7:1e:70:b5:a5:2f:ea:e9:b6:b0:61:34:0a:20:55:
         c0:73:af:4a:d3:32:64:7d:cc:c4:3f:b2:45:ad:1e:4c:f6:ad:
         d9:bf:a7:e0
-----BEGIN CERTIFICATE-----
MIIC7TCCAdWgAwIBAgIJALsG3DQ6EZwpMA0GCSqGSIb3DQEBBQUAMBQxEjAQBgNV
BAMMCUQgUm9vdCBDQTAeFw0xNDAyMDQwNDI1NTdaFw0yNDAyMDIwNDI1NTdaMBQx
EjAQBgNVBAMMCUQgUm9vdCBDQTCCASIwDQYJKoZIhvcNAQEBBQADggEPADCCAQoC
ggEBAKhPaGD499uWxwozOrskAewGFWieM7EsTrbgI7zvTrYDCYYhcoW/WsSIVPhE
RamqfHRQPENfweUPWYziV0iP2dmJUwFKJItwtjhd1OMU07pJg6W3MQ8QLQZAvBE5
U2cEIbJSqWFmNC0+zgqeludgPeR6EJwd5o2kESDpxWB9ANQD/xuSutFDRBIuuT53
D5gzYOjfZ9gILRq0Yj51a3a4odGPCU2qiPhhkGzOhBWF+L26QOkzIu1j+hvPag2W
kRHhxzq5w3pC03hcx8excgVjkiIot+o8CtBtnKptYGYpu0NqwCvO7wVcfNmLxJ5l
gPAyZ7lLnGV632KiLrQUUBWHtacCAwEAAaNCMEAwDwYDVR0TAQH/BAUwAwEB/zAd
BgNVHQ4EFgQUpjw/NAsUieO/krr4GAvjxjFMd9AwDgYDVR0PAQH/BAQDAgEGMA0G
CSqGSIb3DQEBBQUAA4IBAQAe5pisOUrwwsRwdt3HJixhAL77cx79ctEloIRR7ud2
9nKOiYtp7xwQrs5KKSvWQ1I/MjDEPz8qPsivzNgNVLl0rAyeQ3HBVojokqNA9MBz
4yi9kwKvwhtmXoxbDkhVxkiq9cbCwcyDrFnSQCX5hFKPV5cd6j0kJhmoumAa3Lx9
zI2a/A9/Pbi077lHKA8HC1fqOhLIAWmOSUb4Gc+taVqUSPJUPbCZAsjW/06nz9G0
5ZSSzj/RhhsBa1HNlMzBLN1NQ8LlzSGfP+yIt+SdTPVVYSx1+Uv3L7ovb9n3HnC1
pS/q6bawYTQKIFXAc69K0zJkfczEP7JFrR5M9q3Zv6fg
-----END CERTIFICATE-----
