-----BEGIN RSA PRIVATE KEY-----
MIIEpAIBAAKCAQEAvYF0kDZ7Nd/z6hjKuWSoWIWQKt4ivpoLl73+YZgq5S3PnrwM
I14hTxmttT6c1KoFWnFOt5mBp2s1CSJDhL7pccZwO2+IxCu6CrjBfEK+P9gLiIdT
gnujctRCU/N9y4RQYDQchmU2++ZHT2Fgw5t7SlduLKyQ7kcNspLiu+h84nQ+co8C
kUHoLmAagIN2uIf9818E3VaX8xEEcJ5I4pblZqOF3bL2kR7ow6Z5lLfkbiU4J6N5
mZxTuovJz9Ze4MDGBZpgRnMlVqQCPNw21WASD8n5TsAeK3Rg7wMwilN+yArrK5vb
o2MDhbi6yv2T/fOPh5cRJNUR81Csuh+d1+QwfQIDAQABAoIBAA6ExYZq9iOZhdlw
js+HW7J0gSgXnrfVm3/DqaKWgurOCLMTmyZ2hrzFrd5N7rwITqKwPaSpWRqXhxet
DVk1OzNhTaXwFJ1a8ET0BLbdci/4AGI0Y/yCNnKMuowuAnw+Jd5I/8p4JK9F5D67
qisyVU7LxgAcNHpc7Tq6MC7PUAoVVd7uPy0NtSD3JikwYWHUv+BtOm8P5jugy8Kr
qMN0c0/qsZ0SedfT1k/IIfu79DZZ5hBl5rUhgMYjuycd0Hi5qOa7o2fdVXJh2eLo
HY3cQTymWlibutABv//P+NsteyrXXFkcmPjNXHy5WpvmT2RR5Hxx57hJck/7xVjv
u8B7AgECgYEA9vLjrUeO2Wei5BsL9I5xB+epwaXAUsaugnRXePG5i2HhCRfOeU9f
PKuv0F4yuHNre9j1w5X/5WzxnFhDSb1QLbFXlgFCltL5a3RypygC9B0r7VFQCaLI
ODjX5h06PZq6oLLiLSyVlOSrcPXNJLuhMqNnHuOUacUtOIx4B2vpwP0CgYEAxHOU
YlMwUhgmPKZ/R7lNYMAKKUAiuKEkFM0K1K0/GnizhYDnc2atxORk54ZD6aGYuf9y
xBWmOZobNTmGw9bnQhePai/xHUoJgs8KWN5e8pBJXAouL12pqRC4sQCIVc9R3J+7
djTPTco0oexkUsbe1rr4hCqoR9iUePxl7wY5BYECgYEA8nA6fV+HKoDINlEnR4yg
Aza4PdjQG3Pa11AIoEAP/Hq3RwoMNqRpx1J2ZIZWHSeTGh9CCCY297Ig8XDlfntR
P8qfRjEugovVOl00Qk7Rt378JRxzC0K4dhm4O73t85T4K9PyoI7ouyhT964ZHDro
YqJxFq4ugjiF0MJ3BDI5ZrECgYAItf9MZNftq/h2FAPs0ECoG5vXvGpNuYd6DKWA
TLZRnCyJrO+WZGUsJ9x5j7CPOYUmKjeSjksynqy6LXTWVj8m5RiM4tdULyZA0KFq
02FubAt0s1bc7tBJGN63qohhFbJRkBul4C2ZC3BOBcdlDEBxURUX9zRDC016F+cF
NEdvAQKBgQCtJhaEt1dzbB0qYEZz7kYr3QP1hz/6XfnAd8wmJNQQQ8yctNlJc+dH
Foo3qwU2uJWFbByBxIvkmCDTAOCJwOONP/MhigvDQth/sa+TbY6y39XywL0TyG/p
X19RWD9TYNG7C9y9Z8Jcz+u9iCd5enqLYw7Qle9gq3jwK1GXsV5zEQ==
-----END RSA PRIVATE KEY-----
Certificate:
    Data:
        Version: 3 (0x2)
        Serial Number: 4096 (0x1000)
    Signature Algorithm: sha1WithRSAEncryption
        Issuer: CN=B CA
        Validity
            Not Before: Feb  4 04:25:58 2014 GMT
            Not After : Feb  2 04:25:58 2024 GMT
        Subject: C=US, ST=California, L=Mountain View, O=Test CA, CN=127.0.0.1
        Subject Public Key Info:
            Public Key Algorithm: rsaEncryption
                Public-Key: (2048 bit)
                Modulus:
                    00:bd:81:74:90:36:7b:35:df:f3:ea:18:ca:b9:64:
                    a8:58:85:90:2a:de:22:be:9a:0b:97:bd:fe:61:98:
                    2a:e5:2d:cf:9e:bc:0c:23:5e:21:4f:19:ad:b5:3e:
                    9c:d4:aa:05:5a:71:4e:b7:99:81:a7:6b:35:09:22:
                    43:84:be:e9:71:c6:70:3b:6f:88:c4:2b:ba:0a:b8:
                    c1:7c:42:be:3f:d8:0b:88:87:53:82:7b:a3:72:d4:
                    42:53:f3:7d:cb:84:50:60:34:1c:86:65:36:fb:e6:
                    47:4f:61:60:c3:9b:7b:4a:57:6e:2c:ac:90:ee:47:
                    0d:b2:92:e2:bb:e8:7c:e2:74:3e:72:8f:02:91:41:
                    e8:2e:60:1a:80:83:76:b8:87:fd:f3:5f:04:dd:56:
                    97:f3:11:04:70:9e:48:e2:96:e5:66:a3:85:dd:b2:
                    f6:91:1e:e8:c3:a6:79:94:b7:e4:6e:25:38:27:a3:
                    79:99:9c:53:ba:8b:c9:cf:d6:5e:e0:c0:c6:05:9a:
                    60:46:73:25:56:a4:02:3c:dc:36:d5:60:12:0f:c9:
                    f9:4e:c0:1e:2b:74:60:ef:03:30:8a:53:7e:c8:0a:
                    eb:2b:9b:db:a3:63:03:85:b8:ba:ca:fd:93:fd:f3:
                    8f:87:97:11:24:d5:11:f3:50:ac:ba:1f:9d:d7:e4:
                    30:7d
                Exponent: 65537 (0x10001)
        X509v3 extensions:
            X509v3 Basic Constraints: critical
                CA:FALSE
            X509v3 Subject Key Identifier: 
                2C:58:4E:D7:58:62:F8:D6:BF:BE:80:5C:04:3A:39:B1:41:8C:D3:D7
            X509v3 Authority Key Identifier: 
                keyid:CD:18:27:4F:88:B1:26:85:B9:8F:9C:00:A4:F8:1A:FD:01:86:5E:EC

            X509v3 Extended Key Usage: 
                TLS Web Server Authentication, TLS Web Client Authentication
    Signature Algorithm: sha1WithRSAEncryption
         0d:09:9b:f0:11:81:5a:5d:f1:85:73:fb:f2:c8:bc:82:99:27:
         fd:58:c7:6a:d6:28:f1:09:63:4e:61:fd:68:3a:23:0a:10:fe:
         58:7b:20:a3:7a:69:e6:74:55:5c:14:4f:ec:d7:e2:10:aa:8b:
         a6:3f:99:c1:ef:bb:48:a9:42:b8:9a:8e:65:75:7b:cc:5c:bd:
         e4:c0:63:e2:d1:6b:38:32:5f:33:b3:fc:0c:33:b0:8b:dd:10:
         54:15:99:2d:c4:62:68:3f:af:3f:e2:d9:52:33:d4:31:4c:ed:
         c7:28:76:bb:21:6b:b9:41:fb:88:40:52:e1:52:76:31:af:d8:
         a6:63:d1:d9:a5:e4:95:39:74:a8:73:f5:b0:c4:4e:bf:ef:a1:
         87:2e:94:a0:bd:cc:e3:90:45:5c:5a:18:15:0d:09:47:45:0f:
         1e:d7:cf:d3:8d:c6:b0:54:c4:5f:21:50:5c:b5:0d:eb:c3:15:
         3d:ee:88:fa:b4:80:93:4d:2e:00:9e:46:b6:fb:e8:64:32:51:
         8a:35:81:7a:d3:71:73:8d:2a:27:d4:57:2f:66:4c:fc:99:81:
         06:66:1f:5b:e6:a4:e5:35:eb:f3:e5:e3:f3:31:78:fe:b0:03:
         f9:5d:77:97:70:d7:53:52:50:df:15:5b:3e:fc:7e:9a:1f:6a:
         ce:c2:37:2f
-----BEGIN CERTIFICATE-----
MIIDWjCCAkKgAwIBAgICEAAwDQYJKoZIhvcNAQEFBQAwDzENMAsGA1UEAwwEQiBD
QTAeFw0xNDAyMDQwNDI1NThaFw0yNDAyMDIwNDI1NThaMGAxCzAJBgNVBAYTAlVT
MRMwEQYDVQQIDApDYWxpZm9ybmlhMRYwFAYDVQQHDA1Nb3VudGFpbiBWaWV3MRAw
DgYDVQQKDAdUZXN0IENBMRIwEAYDVQQDDAkxMjcuMC4wLjEwggEiMA0GCSqGSIb3
DQEBAQUAA4IBDwAwggEKAoIBAQC9gXSQNns13/PqGMq5ZKhYhZAq3iK+mguXvf5h
mCrlLc+evAwjXiFPGa21PpzUqgVacU63mYGnazUJIkOEvulxxnA7b4jEK7oKuMF8
Qr4/2AuIh1OCe6Ny1EJT833LhFBgNByGZTb75kdPYWDDm3tKV24srJDuRw2ykuK7
6HzidD5yjwKRQeguYBqAg3a4h/3zXwTdVpfzEQRwnkjiluVmo4XdsvaRHujDpnmU
t+RuJTgno3mZnFO6i8nP1l7gwMYFmmBGcyVWpAI83DbVYBIPyflOwB4rdGDvAzCK
U37ICusrm9ujYwOFuLrK/ZP984+HlxEk1RHzUKy6H53X5DB9AgMBAAGjbzBtMAwG
A1UdEwEB/wQCMAAwHQYDVR0OBBYEFCxYTtdYYvjWv76AXAQ6ObFBjNPXMB8GA1Ud
IwQYMBaAFM0YJ0+IsSaFuY+cAKT4Gv0Bhl7sMB0GA1UdJQQWMBQGCCsGAQUFBwMB
BggrBgEFBQcDAjANBgkqhkiG9w0BAQUFAAOCAQEADQmb8BGBWl3xhXP78si8gpkn
/VjHatYo8QljTmH9aDojChD+WHsgo3pp5nRVXBRP7NfiEKqLpj+Zwe+7SKlCuJqO
ZXV7zFy95MBj4tFrODJfM7P8DDOwi90QVBWZLcRiaD+vP+LZUjPUMUztxyh2uyFr
uUH7iEBS4VJ2Ma/YpmPR2aXklTl0qHP1sMROv++hhy6UoL3M45BFXFoYFQ0JR0UP
HtfP043GsFTEXyFQXLUN68MVPe6I+rSAk00uAJ5GtvvoZDJRijWBetNxc40qJ9RX
L2ZM/JmBBmYfW+ak5TXr8+Xj8zF4/rAD+V13l3DXU1JQ3xVbPvx+mh9qzsI3Lw==
-----END CERTIFICATE-----
Certificate:
    Data:
        Version: 3 (0x2)
        Serial Number: 4097 (0x1001)
    Signature Algorithm: sha1WithRSAEncryption
        Issuer: CN=C CA
        Validity
            Not Before: Feb  4 04:25:58 2014 GMT
            Not After : Feb  2 04:25:58 2024 GMT
        Subject: CN=B CA
        Subject Public Key Info:
            Public Key Algorithm: rsaEncryption
                Public-Key: (2048 bit)
                Modulus:
                    00:ab:18:b1:0e:c2:f9:61:1a:13:c4:95:b8:65:d8:
                    cb:36:2f:72:e8:e1:97:44:1d:0d:55:a0:cc:02:12:
                    04:a4:78:f6:df:c3:6f:c9:b8:50:15:d8:5c:21:ed:
                    8f:c4:e7:db:81:da:fe:01:60:39:63:99:e4:04:dc:
                    15:ea:59:6b:35:da:1a:e3:3e:dd:f0:71:8f:64:79:
                    1a:30:b1:be:5a:43:9c:88:1a:a0:26:2f:5d:6c:b6:
                    8b:b8:6d:10:b0:97:f4:a1:d3:7b:56:3d:dd:12:19:
                    a3:5e:02:24:9e:19:8e:d2:0b:e2:ea:8e:a2:cc:a1:
                    8e:f0:49:e1:81:ae:3a:a6:71:d5:e8:e4:80:27:01:
                    58:66:8c:bd:a0:4f:08:01:59:5c:c3:e3:d5:6f:49:
                    73:24:66:f5:25:b3:9e:a1:29:21:de:e9:d5:ad:b0:
                    1d:fc:b7:4c:f7:5a:9a:2b:5a:2c:af:07:aa:c2:82:
                    5a:36:06:1d:27:2d:90:c7:45:1e:7b:f4:7a:8a:fe:
                    90:c1:79:c9:8f:4e:67:52:48:ea:0b:dd:d7:fe:84:
                    54:47:2f:d9:d0:ca:11:07:59:b0:90:08:0b:76:a2:
                    ec:30:a5:45:aa:d7:61:39:84:43:33:97:22:b6:45:
                    c8:e8:ab:73:5f:79:a8:13:55:2f:71:a2:c9:21:aa:
                    9b:df
                Exponent: 65537 (0x10001)
        X509v3 extensions:
            X509v3 Basic Constraints: critical
                CA:TRUE
            X509v3 Subject Key Identifier: 
                CD:18:27:4F:88:B1:26:85:B9:8F:9C:00:A4:F8:1A:FD:01:86:5E:EC
            X509v3 Key Usage: critical
                Certificate Sign, CRL Sign
    Signature Algorithm: sha1WithRSAEncryption
         00:80:9b:99:4b:81:b1:76:49:5c:f2:99:ef:88:93:18:75:68:
         eb:26:9e:87:95:b6:91:23:c0:b5:78:58:96:97:9c:27:38:fa:
         f3:e5:c3:a2:34:40:91:6d:45:2c:7f:63:51:98:5b:53:4b:91:
         ce:0f:e2:32:63:e7:e5:f9:21:6b:b7:f9:94:ac:33:13:5c:27:
         9b:98:e7:7f:44:50:29:98:68:81:53:6b:a1:43:d8:04:40:cb:
         f2:cf:18:39:a5:24:c9:88:b6:b7:76:cb:dd:18:2e:1d:24:3e:
         d3:59:e9:04:48:9d:59:0c:0f:d0:79:6a:93:7d:2b:b9:8e:50:
         34:00:0d:48:ae:10:bd:80:04:74:da:06:27:15:ad:88:ec:36:
         61:51:80:fe:6b:1d:46:37:0e:ea:23:60:c1:79:bf:03:2a:d2:
         80:9e:2c:10:3a:bc:2d:50:6e:f7:f9:d5:ec:11:d9:b4:62:bc:
         09:2c:05:31:06:bf:b9:e1:d5:1e:02:a9:1a:c5:c4:13:bf:b7:
         8e:6a:08:51:57:af:db:7b:09:74:bd:c7:bd:3c:de:0a:51:8a:
         fe:82:0b:4b:34:74:10:4b:4b:34:fd:42:28:48:10:db:5d:6d:
         64:80:b1:3c:5c:04:86:32:6c:25:87:db:23:dc:e4:42:e4:71:
         f9:b1:88:74
-----BEGIN CERTIFICATE-----
MIIC3DCCAcSgAwIBAgICEAEwDQYJKoZIhvcNAQEFBQAwDzENMAsGA1UEAwwEQyBD
QTAeFw0xNDAyMDQwNDI1NThaFw0yNDAyMDIwNDI1NThaMA8xDTALBgNVBAMMBEIg
Q0EwggEiMA0GCSqGSIb3DQEBAQUAA4IBDwAwggEKAoIBAQCrGLEOwvlhGhPElbhl
2Ms2L3Lo4ZdEHQ1VoMwCEgSkePbfw2/JuFAV2Fwh7Y/E59uB2v4BYDljmeQE3BXq
WWs12hrjPt3wcY9keRowsb5aQ5yIGqAmL11stou4bRCwl/Sh03tWPd0SGaNeAiSe
GY7SC+LqjqLMoY7wSeGBrjqmcdXo5IAnAVhmjL2gTwgBWVzD49VvSXMkZvUls56h
KSHe6dWtsB38t0z3WporWiyvB6rCglo2Bh0nLZDHRR579HqK/pDBecmPTmdSSOoL
3df+hFRHL9nQyhEHWbCQCAt2ouwwpUWq12E5hEMzlyK2Rcjoq3NfeagTVS9xoskh
qpvfAgMBAAGjQjBAMA8GA1UdEwEB/wQFMAMBAf8wHQYDVR0OBBYEFM0YJ0+IsSaF
uY+cAKT4Gv0Bhl7sMA4GA1UdDwEB/wQEAwIBBjANBgkqhkiG9w0BAQUFAAOCAQEA
AICbmUuBsXZJXPKZ74iTGHVo6yaeh5W2kSPAtXhYlpecJzj68+XDojRAkW1FLH9j
UZhbU0uRzg/iMmPn5fkha7f5lKwzE1wnm5jnf0RQKZhogVNroUPYBEDL8s8YOaUk
yYi2t3bL3RguHSQ+01npBEidWQwP0Hlqk30ruY5QNAANSK4QvYAEdNoGJxWtiOw2
YVGA/msdRjcO6iNgwXm/AyrSgJ4sEDq8LVBu9/nV7BHZtGK8CSwFMQa/ueHVHgKp
GsXEE7+3jmoIUVev23sJdL3HvTzeClGK/oILSzR0EEtLNP1CKEgQ211tZICxPFwE
hjJsJYfbI9zkQuRx+bGIdA==
-----END CERTIFICATE-----
Certificate:
    Data:
        Version: 3 (0x2)
        Serial Number: 4100 (0x1004)
    Signature Algorithm: sha1WithRSAEncryption
        Issuer: CN=E Root CA
        Validity
            Not Before: Feb  4 04:25:58 2014 GMT
            Not After : Feb  2 04:25:58 2024 GMT
        Subject: CN=C CA
        Subject Public Key Info:
            Public Key Algorithm: rsaEncryption
                Public-Key: (2048 bit)
                Modulus:
                    00:ca:21:76:fd:8b:0f:24:ba:dc:ab:cd:0e:31:94:
                    01:90:57:79:18:3c:58:61:f5:7e:b7:2f:e6:46:d3:
                    41:e8:4e:29:29:a8:9d:eb:d6:df:69:d5:b1:10:de:
                    6b:17:2d:8d:8a:1c:d7:dc:80:85:74:c2:7a:6e:a6:
                    75:7a:2a:76:42:fb:65:6b:8c:a9:2f:c0:5e:76:1e:
                    bc:35:85:b2:4b:35:a4:97:33:15:76:7d:4f:6e:d0:
                    3b:45:04:fe:dc:a0:11:67:15:2d:3a:c3:07:c6:db:
                    f2:89:25:92:5e:db:70:bd:88:e9:f0:c7:54:6f:8e:
                    ab:cf:ce:ca:ad:bb:44:72:bf:e9:b5:ab:ba:68:15:
                    6d:1e:e1:66:d6:60:d8:bd:dc:ab:d3:e8:2f:4c:ee:
                    29:46:36:c7:b1:61:af:20:19:cc:98:1c:78:5f:4d:
                    97:7a:de:2f:d9:fd:f0:b8:47:34:ff:ed:73:07:eb:
                    90:54:11:e2:1b:8e:68:5a:c1:72:a9:af:df:e9:f1:
                    f5:ca:0e:72:03:90:1b:af:64:d6:ee:ce:67:57:1b:
                    fb:c7:f1:c2:5c:97:81:cd:d6:22:7c:26:bf:cd:6a:
                    b9:99:5f:58:63:5f:ce:05:1c:7d:f1:a9:d3:f8:4c:
                    fe:10:82:a4:14:2c:67:97:6c:82:2f:98:38:83:50:
                    bf:71
                Exponent: 65537 (0x10001)
        X509v3 extensions:
            X509v3 Basic Constraints: critical
                CA:TRUE
            X509v3 Subject Key Identifier: 
                F5:87:AF:4C:B3:4A:88:7F:EB:92:D3:C7:28:78:91:D9:02:4A:71:DF
            X509v3 Key Usage: critical
                Certificate Sign, CRL Sign
    Signature Algorithm: sha1WithRSAEncryption
         8c:05:c2:e8:03:57:4c:17:bd:69:1c:2f:3a:3e:9a:c5:11:2d:
         94:c1:38:4d:f1:a8:aa:29:9c:40:d6:99:63:79:8a:96:60:be:
         5a:ba:54:8b:db:a6:f0:66:ae:f1:48:54:2d:a4:9f:ec:ba:e3:
         75:77:c0:54:1d:ce:b1:87:74:61:91:19:14:28:74:b0:ca:7a:
         a0:fe:da:eb:26:be:86:cc:db:65:c4:c8:17:fb:9f:78:c3:df:
         39:f5:4f:77:5c:05:49:b5:fa:c5:9e:04:35:4f:ff:72:73:6d:
         8a:31:70:83:3b:19:c2:14:09:9a:2f:f2:ea:cb:13:b4:fa:56:
         d2:a9:34:88:56:9c:f2:3e:22:46:56:ad:62:05:20:3b:ed:2e:
         6d:c5:02:de:da:53:8f:79:6c:42:29:c4:b6:5b:9a:31:d2:9b:
         07:3d:62:22:fa:c9:7c:f6:96:e4:a3:f2:5f:46:65:35:ba:af:
         34:9b:2d:30:eb:de:ac:6f:b3:af:e6:7f:10:80:8d:f6:eb:0a:
         03:74:75:8f:ae:e1:13:70:4a:4a:55:e1:f0:f3:69:ff:7e:fb:
         76:7b:5e:ae:ad:5e:59:6c:af:35:e9:08:f6:16:fe:3c:85:e3:
         91:97:0c:23:63:d5:07:40:23:23:eb:20:a8:e1:05:e3:ae:44:
         9f:38:f1:61
-----BEGIN CERTIFICATE-----
MIIC4TCCAcmgAwIBAgICEAQwDQYJKoZIhvcNAQEFBQAwFDESMBAGA1UEAwwJRSBS
b290IENBMB4XDTE0MDIwNDA0MjU1OFoXDTI0MDIwMjA0MjU1OFowDzENMAsGA1UE
AwwEQyBDQTCCASIwDQYJKoZIhvcNAQEBBQADggEPADCCAQoCggEBAMohdv2LDyS6
3KvNDjGUAZBXeRg8WGH1frcv5kbTQehOKSmonevW32nVsRDeaxctjYoc19yAhXTC
em6mdXoqdkL7ZWuMqS/AXnYevDWFsks1pJczFXZ9T27QO0UE/tygEWcVLTrDB8bb
8oklkl7bcL2I6fDHVG+Oq8/Oyq27RHK/6bWrumgVbR7hZtZg2L3cq9PoL0zuKUY2
x7FhryAZzJgceF9Nl3reL9n98LhHNP/tcwfrkFQR4huOaFrBcqmv3+nx9coOcgOQ
G69k1u7OZ1cb+8fxwlyXgc3WInwmv81quZlfWGNfzgUcffGp0/hM/hCCpBQsZ5ds
gi+YOINQv3ECAwEAAaNCMEAwDwYDVR0TAQH/BAUwAwEB/zAdBgNVHQ4EFgQU9Yev
TLNKiH/rktPHKHiR2QJKcd8wDgYDVR0PAQH/BAQDAgEGMA0GCSqGSIb3DQEBBQUA
A4IBAQCMBcLoA1dMF71pHC86PprFES2UwThN8aiqKZxA1pljeYqWYL5aulSL26bw
Zq7xSFQtpJ/suuN1d8BUHc6xh3RhkRkUKHSwynqg/trrJr6GzNtlxMgX+594w985
9U93XAVJtfrFngQ1T/9yc22KMXCDOxnCFAmaL/LqyxO0+lbSqTSIVpzyPiJGVq1i
BSA77S5txQLe2lOPeWxCKcS2W5ox0psHPWIi+sl89pbko/JfRmU1uq80my0w696s
b7Ov5n8QgI326woDdHWPruETcEpKVeHw82n/fvt2e16urV5ZbK816Qj2Fv48heOR
lwwjY9UHQCMj6yCo4QXjrkSfOPFh
-----END CERTIFICATE-----
Certificate:
    Data:
        Version: 3 (0x2)
        Serial Number: 15337932515437853935 (0xd4db485be3963cef)
    Signature Algorithm: sha1WithRSAEncryption
        Issuer: CN=E Root CA
        Validity
            Not Before: Feb  4 04:25:58 2014 GMT
            Not After : Feb  2 04:25:58 2024 GMT
        Subject: CN=E Root CA
        Subject Public Key Info:
            Public Key Algorithm: rsaEncryption
                Public-Key: (2048 bit)
                Modulus:
                    00:a4:0f:61:93:2e:cc:e7:2f:fa:30:d2:6a:ca:eb:
                    21:bb:f8:26:55:f3:70:42:c0:48:ca:51:2b:11:20:
                    32:16:86:38:8f:d3:fe:88:5a:a4:81:3b:77:1f:82:
                    e0:26:08:d1:8f:d6:03:98:2d:21:eb:d0:bb:f2:fc:
                    25:83:98:95:e9:d2:cc:a6:4e:0d:fb:70:6a:0c:33:
                    ca:bb:a1:d4:27:30:69:f7:0c:86:e7:82:26:56:c4:
                    95:aa:f5:1f:50:8c:95:bf:9a:2d:40:a8:d2:9d:2b:
                    78:b0:87:a9:20:b1:73:e1:99:64:cd:22:81:72:76:
                    d0:fa:46:80:0a:45:50:c5:c1:92:8b:f4:1d:e4:73:
                    74:90:53:7f:6c:43:6a:9b:e0:8d:87:96:85:8c:86:
                    72:21:8c:17:78:ab:b7:fd:1a:ad:9f:37:03:53:4f:
                    94:66:5d:99:fa:cd:d8:c9:0b:0b:dc:83:5f:c8:40:
                    9d:50:e8:aa:de:a1:35:8a:ea:e0:26:10:cc:c0:9d:
                    0c:aa:23:df:68:b3:7e:e3:55:e4:91:b2:f5:97:15:
                    22:6a:71:5e:83:19:41:cb:99:8e:84:33:cd:15:7f:
                    a1:90:42:5b:ab:f6:40:b8:67:97:d7:65:0f:d3:a5:
                    0a:96:cd:9c:aa:fc:57:87:6b:54:ed:4f:b1:4c:01:
                    81:cd
                Exponent: 65537 (0x10001)
        X509v3 extensions:
            X509v3 Basic Constraints: critical
                CA:TRUE
            X509v3 Subject Key Identifier: 
                B1:D9:42:46:8A:51:56:85:13:A1:BF:84:84:20:40:7A:ED:54:DC:9B
            X509v3 Key Usage: critical
                Certificate Sign, CRL Sign
    Signature Algorithm: sha1WithRSAEncryption
         44:46:db:03:28:bd:b3:32:9d:48:cb:5f:dc:2d:3f:5e:1a:52:
         a8:61:ef:fb:97:7a:0e:a9:a9:83:5c:1c:7e:b9:e4:7a:12:57:
         d0:5b:8f:c1:34:b8:5a:7f:ee:d0:c5:c9:b5:a3:68:0d:ce:68:
         78:08:44:f7:0f:50:bc:c8:87:15:f6:79:5a:1e:21:cc:6d:c9:
         31:70:ad:58:fc:9d:71:d1:2f:25:eb:e1:b6:b8:50:d0:90:28:
         f2:48:c7:9f:f2:a4:63:ba:13:03:05:60:41:93:4e:ab:02:0f:
         27:ae:e9:51:f2:45:ba:47:4c:f6:17:82:24:39:a7:5d:c3:eb:
         2d:47:fb:14:06:f8:10:67:e4:98:aa:57:68:9e:f3:5a:b1:82:
         24:e6:dc:0f:cc:53:83:a5:a3:53:9f:d0:31:76:21:50:d0:6c:
         af:d5:19:4e:41:b9:d1:b1:eb:bf:02:34:c5:ab:b8:d6:5e:33:
         13:26:e6:82:42:01:94:77:3e:94:35:5e:d5:73:16:7d:fb:a6:
         2d:a7:b8:8a:b4:49:56:d5:7b:5f:ec:d0:fe:ca:7a:78:56:ea:
         1c:a7:61:94:30:a8:92:32:50:40:47:8f:0d:be:f9:96:e4:0a:
         6f:29:7b:41:7d:87:2a:be:b8:42:17:cc:4a:42:ec:c3:1b:2e:
         b6:7f:17:54
-----BEGIN CERTIFICATE-----
MIIC7TCCAdWgAwIBAgIJANTbSFvjljzvMA0GCSqGSIb3DQEBBQUAMBQxEjAQBgNV
BAMMCUUgUm9vdCBDQTAeFw0xNDAyMDQwNDI1NThaFw0yNDAyMDIwNDI1NThaMBQx
EjAQBgNVBAMMCUUgUm9vdCBDQTCCASIwDQYJKoZIhvcNAQEBBQADggEPADCCAQoC
ggEBAKQPYZMuzOcv+jDSasrrIbv4JlXzcELASMpRKxEgMhaGOI/T/ohapIE7dx+C
4CYI0Y/WA5gtIevQu/L8JYOYlenSzKZODftwagwzyruh1CcwafcMhueCJlbElar1
H1CMlb+aLUCo0p0reLCHqSCxc+GZZM0igXJ20PpGgApFUMXBkov0HeRzdJBTf2xD
apvgjYeWhYyGciGMF3irt/0arZ83A1NPlGZdmfrN2MkLC9yDX8hAnVDoqt6hNYrq
4CYQzMCdDKoj32izfuNV5JGy9ZcVImpxXoMZQcuZjoQzzRV/oZBCW6v2QLhnl9dl
D9OlCpbNnKr8V4drVO1PsUwBgc0CAwEAAaNCMEAwDwYDVR0TAQH/BAUwAwEB/zAd
BgNVHQ4EFgQUsdlCRopRVoUTob+EhCBAeu1U3JswDgYDVR0PAQH/BAQDAgEGMA0G
CSqGSIb3DQEBBQUAA4IBAQBERtsDKL2zMp1Iy1/cLT9eGlKoYe/7l3oOqamDXBx+
ueR6ElfQW4/BNLhaf+7Qxcm1o2gNzmh4CET3D1C8yIcV9nlaHiHMbckxcK1Y/J1x
0S8l6+G2uFDQkCjySMef8qRjuhMDBWBBk06rAg8nrulR8kW6R0z2F4IkOaddw+st
R/sUBvgQZ+SYqldonvNasYIk5twPzFODpaNTn9AxdiFQ0Gyv1RlOQbnRseu/AjTF
q7jWXjMTJuaCQgGUdz6UNV7VcxZ9+6Ytp7iKtElW1Xtf7ND+ynp4Vuocp2GUMKiS
MlBAR48NvvmW5ApvKXtBfYcqvrhCF8xKQuzDGy62fxdU
-----END CERTIFICATE-----
