-----BEGIN RSA PRIVATE KEY-----
MIIEpgIBAAKCAQEA9qqEx3tA2pheek7aVb/16FY4NyumZ0fhyXn60xmhUPkRESbR
0JGUNfWEk1KJgGZHL/fkwRW4hCPQMmBzBdAFjCUR/V2QGUVu4dEcNFHrhGsdFiLb
o2T+9a4mqmtYSRZFqHpBqBv8Uy0ec4Et/FzDACLK3CY7Ut+BDW+qcBLYEvXYx3oJ
UGQW71yB7XuBgFjd5R3yq3pHXQXSrZboz2hGd3adYU6xRFiWAEgxOlMm4CmLgqXW
3ywEW4XAmf93jDxjRPCiQqjUFFKu+O9gFIKjNq+apifuVZA5DXI8DmrJfxNQk4g1
iJFZp6FzfyUr/eCV5iHjkjfVpWDr663yy4xAQwIDAQABAoIBAQDGovraSX8oiZtL
k0Rv2W4F86jBhP00HsbMoNZEOVeXBXug/EnqU9GuwlBI8yaXp8Wb81zbwMoeX1jB
uLnn7GULPq8GAdqQ/0ETyHmWCIJI2JlLwjZtll9bKSsqAdfOw4jE6+8DmcXQlXz4
Nwb5OxotedczAfaz/hjG4S23ovUuDggSUtNXNxvXOyzk9FjN87vvl9HWLOLuKzDB
LXYOm0UcEY833XNhnoV3V9GZPHKyZO7HsPLNbCRLwKgVOEqBVwWS+M+QMR8uxrEk
+GVto05gJ6fZ+PXzIVKMOFBST7fx6tBOEAFwmxbYovv7N653rzz/lXQ0SbIPRmcB
VqBDCWOBAoGBAPu1nPTneCX4EdP7ml+RNreRcOce1/9VxOATp7msDghOfBGjwV01
3VYzn7YVxBHxadb0kMiJ6rwEmLroiJsnp2zZpoK8K7Kzkr3Bv2E19CDNNKNo2iAp
WbjTwtPKuj3dWEuLHfQ+FYRb6IkAWfif/u3DFGd5ntMLhhbNbjoRiudbAoGBAPre
5dxxQMFcEw0YaEOlG/hxTh6wsMAd2P4u1vkjz841mNFP04MECJVWUIEdHiN9hCIU
n07V8HE9t5GFEahO1+hIwq35vOQQ0hqGk3s2NvvHZjRtiQXgqX4uOULhyHo9LAyi
bsJHC/+TYyImr/1kLdkdfdjfIwylnFM8wvQ/Bcc5AoGBAK0JO75MhZcsgy0EUSqT
jFcDf+cSmBBq6O3V9T653eet9LK3rU0jo2YIFSo6qlBfcpAYDpQd46WfT1NmWcq3
puw4b7R+IVg3BJC4aZUtXwdRqncPtKvZYVmjEdNBEWlICdPc7hmiuG4GNMRB3pgB
fWH78sHzpNCWonZ4gOcgeinzAoGBAODeGzvVaC3p0knSruKzhLbVGSj5R/Vsy6xL
X/ZB22sDL8+utfCiFO+HRvH0n6dAQsgppAKOUc+venO9y24J/g3/6kD3shDb4vhT
2K6AkhhtS3eDF2dlUYgA9uK0b3bijjFlB9KszFxySFG8S9PdkBslDEDxAgG8ELur
ozQ7qXpBAoGBAOwbkTFGJNCLyirSkyEdPIFDv7GmfKKUNFl5rbRopoQ4q/yjRNKw
fsF7TE9/hqkanVfRCpKM78NtrKGPgTXHPq8kCtdL5yDIQzz/EVC30ar2HzZmnMgX
2AXhOHYT8iXDHcad0HE58gRReb2pPzoxyLDXgEZftI6vbyojfi46NtC4
-----END RSA PRIVATE KEY-----
Certificate:
    Data:
        Version: 1 (0x0)
        Serial Number: 236 (0xec)
    Signature Algorithm: sha1WithRSAEncryption
        Issuer: CN=2048 RSA Test Root CA
        Validity
            Not Before: Jan 23 23:51:05 2013 GMT
            Not After : Jan 21 23:51:05 2023 GMT
        Subject: C=US, ST=California, L=Mountain View, O=Test CA, CN=127.0.0.1
        Subject Public Key Info:
            Public Key Algorithm: rsaEncryption
                Public-Key: (2048 bit)
                Modulus:
                    00:f6:aa:84:c7:7b:40:da:98:5e:7a:4e:da:55:bf:
                    f5:e8:56:38:37:2b:a6:67:47:e1:c9:79:fa:d3:19:
                    a1:50:f9:11:11:26:d1:d0:91:94:35:f5:84:93:52:
                    89:80:66:47:2f:f7:e4:c1:15:b8:84:23:d0:32:60:
                    73:05:d0:05:8c:25:11:fd:5d:90:19:45:6e:e1:d1:
                    1c:34:51:eb:84:6b:1d:16:22:db:a3:64:fe:f5:ae:
                    26:aa:6b:58:49:16:45:a8:7a:41:a8:1b:fc:53:2d:
                    1e:73:81:2d:fc:5c:c3:00:22:ca:dc:26:3b:52:df:
                    81:0d:6f:aa:70:12:d8:12:f5:d8:c7:7a:09:50:64:
                    16:ef:5c:81:ed:7b:81:80:58:dd:e5:1d:f2:ab:7a:
                    47:5d:05:d2:ad:96:e8:cf:68:46:77:76:9d:61:4e:
                    b1:44:58:96:00:48:31:3a:53:26:e0:29:8b:82:a5:
                    d6:df:2c:04:5b:85:c0:99:ff:77:8c:3c:63:44:f0:
                    a2:42:a8:d4:14:52:ae:f8:ef:60:14:82:a3:36:af:
                    9a:a6:27:ee:55:90:39:0d:72:3c:0e:6a:c9:7f:13:
                    50:93:88:35:88:91:59:a7:a1:73:7f:25:2b:fd:e0:
                    95:e6:21:e3:92:37:d5:a5:60:eb:eb:ad:f2:cb:8c:
                    40:43
                Exponent: 65537 (0x10001)
        X509v3 extensions:
            X509v3 Subject Alternative Name: 
                IP Address:127.0.0.1
            X509v3 Basic Constraints: critical
                CA:FALSE
            X509v3 Subject Key Identifier: 
                F1:CF:56:60:86:22:7B:5F:E3:00:7E:D8:73:A2:F2:C4:1D:A9:EB:43
            X509v3 Extended Key Usage: 
                Code Signing
    Signature Algorithm: sha1WithRSAEncryption
         93:70:2e:48:e9:19:55:22:e8:c4:18:9c:2a:cb:4f:3c:e5:88:
         08:a8:8e:8c:49:d5:3e:6a:bc:77:d7:8d:22:03:78:9a:1f:01:
         43:85:e6:ec:d3:ec:90:05:47:a3:23:e8:04:e4:6d:7a:ef:45:
         af:b1:6c:17:7c:e1:3e:be:10:bd:c1:05:12:98:c7:3c:87:49:
         9e:79:30:ca:8a:44:95:ce:00:be:81:26:0e:84:83:ab:16:91:
         f3:33:30:ef:09:50:3e:4b:7b:f8:5b:6c:90:47:f9:55:f6:4c:
         cb:be:50:2d:f1:c1:96:c0:c2:4f:2c:ee:cb:8b:aa:d6:c2:dd:
         28:89:bc:b3:d1:dc:d1:ec:c0:fe:bf:b9:7b:0a:ab:aa:96:ce:
         08:89:d8:c7:50:5d:b0:16:ea:90:15:f0:20:d3:e6:bb:3b:18:
         87:12:71:b7:b8:56:eb:9c:85:be:82:7c:53:4b:88:22:08:59:
         63:ee:75:42:7c:10:69:e9:4c:fe:b0:77:52:81:17:f3:42:b5:
         60:e5:2a:1b:03:21:a0:df:bb:ab:21:46:6b:fb:78:76:ac:80:
         ec:c3:9d:58:a7:27:af:8a:b0:60:a1:c7:8c:f9:e3:d6:f9:1b:
         e8:44:67:3f:bc:43:e6:32:e1:d9:ca:29:78:20:8c:45:42:0c:
         76:39:c2:c0
-----BEGIN CERTIFICATE-----
MIIDTDCCAjQCAgDsMA0GCSqGSIb3DQEBBQUAMCAxHjAcBgNVBAMMFTIwNDggUlNB
IFRlc3QgUm9vdCBDQTAeFw0xMzAxMjMyMzUxMDVaFw0yMzAxMjEyMzUxMDVaMGAx
CzAJBgNVBAYTAlVTMRMwEQYDVQQIDApDYWxpZm9ybmlhMRYwFAYDVQQHDA1Nb3Vu
dGFpbiBWaWV3MRAwDgYDVQQKDAdUZXN0IENBMRIwEAYDVQQDDAkxMjcuMC4wLjEw
ggEiMA0GCSqGSIb3DQEBAQUAA4IBDwAwggEKAoIBAQD2qoTHe0DamF56TtpVv/Xo
Vjg3K6ZnR+HJefrTGaFQ+RERJtHQkZQ19YSTUomAZkcv9+TBFbiEI9AyYHMF0AWM
JRH9XZAZRW7h0Rw0UeuEax0WItujZP71riaqa1hJFkWoekGoG/xTLR5zgS38XMMA
IsrcJjtS34ENb6pwEtgS9djHeglQZBbvXIHte4GAWN3lHfKrekddBdKtlujPaEZ3
dp1hTrFEWJYASDE6UybgKYuCpdbfLARbhcCZ/3eMPGNE8KJCqNQUUq7472AUgqM2
r5qmJ+5VkDkNcjwOasl/E1CTiDWIkVmnoXN/JSv94JXmIeOSN9WlYOvrrfLLjEBD
AgMBAAGjVTBTMA8GA1UdEQQIMAaHBH8AAAEwDAYDVR0TAQH/BAIwADAdBgNVHQ4E
FgQU8c9WYIYie1/jAH7Yc6LyxB2p60MwEwYDVR0lBAwwCgYIKwYBBQUHAwMwDQYJ
KoZIhvcNAQEFBQADggEBAJNwLkjpGVUi6MQYnCrLTzzliAiojoxJ1T5qvHfXjSID
eJofAUOF5uzT7JAFR6Mj6ATkbXrvRa+xbBd84T6+EL3BBRKYxzyHSZ55MMqKRJXO
AL6BJg6Eg6sWkfMzMO8JUD5Le/hbbJBH+VX2TMu+UC3xwZbAwk8s7suLqtbC3SiJ
vLPR3NHswP6/uXsKq6qWzgiJ2MdQXbAW6pAV8CDT5rs7GIcScbe4Vuuchb6CfFNL
iCIIWWPudUJ8EGnpTP6wd1KBF/NCtWDlKhsDIaDfu6shRmv7eHasgOzDnVinJ6+K
sGChx4z549b5G+hEZz+8Q+Yy4dnKKXggjEVCDHY5wsA=
-----END CERTIFICATE-----
