Certificate:
    Data:
        Version: 1 (0x0)
        Serial Number: 242 (0xf2)
        Signature Algorithm: sha1WithRSAEncryption
        Issuer: CN=768 rsa Test intermediate CA
        Validity
            Not Before: Dec 12 22:47:54 2011 GMT
            Not After : Dec  9 22:47:54 2021 GMT
        Subject: C=US, ST=California, L=Mountain View, O=Test CA, CN=127.0.0.1
        Subject Public Key Info:
            Public Key Algorithm: id-ecPublicKey
            EC Public Key:
                pub: 
                    04:bd:53:19:05:f9:a1:53:38:f9:94:53:38:c3:5f:
                    65:91:ca:00:98:ff:8c:78:cb:a9:ce:a7:f4:ac:74:
                    48:94:0a:6d:8e:6e:12:16:0c:ba:fb:4d:39:6f:75:
                    96:0e:f6:6a:ab:e9:9b:a4:6f:3b:35:fc:ad:dc:6b:
                    12:97:1e:de:79
                ASN1 OID: prime256v1
        X509v3 extensions:
            X509v3 Subject Alternative Name: 
                IP Address:127.0.0.1
    Signature Algorithm: sha1WithRSAEncryption
        5a:27:e9:f3:8a:ea:29:4b:32:0d:27:de:e4:c8:94:d4:72:1e:
        b9:97:f6:a1:d1:13:df:fc:7d:98:1e:5e:bc:05:0b:24:9a:0a:
        4c:cc:5f:66:8a:7a:51:18:42:48:b1:1b:56:1b:46:bf:9b:56:
        bd:c5:46:54:da:c1:7f:00:2c:c5:f1:e9:24:da:1e:19:83:96:
        5f:df:71:15:61:73:8e:6c:ca:3d:50:e7:de:2d:4a:ce:9a:a1:
        44:51:64:0e:b0:6a
-----BEGIN CERTIFICATE-----
MIIBpDCCAS4CAgDyMA0GCSqGSIb3DQEBBQUAMCcxJTAjBgNVBAMMHDc2OCByc2Eg
VGVzdCBpbnRlcm1lZGlhdGUgQ0EwHhcNMTExMjEyMjI0NzU0WhcNMjExMjA5MjI0
NzU0WjBgMQswCQYDVQQGEwJVUzETMBEGA1UECAwKQ2FsaWZvcm5pYTEWMBQGA1UE
BwwNTW91bnRhaW4gVmlldzEQMA4GA1UECgwHVGVzdCBDQTESMBAGA1UEAwwJMTI3
LjAuMC4xMFkwEwYHKoZIzj0CAQYIKoZIzj0DAQcDQgAEvVMZBfmhUzj5lFM4w19l
kcoAmP+MeMupzqf0rHRIlAptjm4SFgy6+005b3WWDvZqq+mbpG87Nfyt3GsSlx7e
eaMTMBEwDwYDVR0RBAgwBocEfwAAATANBgkqhkiG9w0BAQUFAANhAFon6fOK6ilL
Mg0n3uTIlNRyHrmX9qHRE9/8fZgeXrwFCySaCkzMX2aKelEYQkixG1YbRr+bVr3F
RlTawX8ALMXx6STaHhmDll/fcRVhc45syj1Q594tSs6aoURRZA6wag==
-----END CERTIFICATE-----
