Certificate:
    Data:
        Version: 1 (0x0)
        Serial Number: 242 (0xf2)
        Signature Algorithm: sha1WithRSAEncryption
        Issuer: CN=2048 rsa Test intermediate CA
        Validity
            Not Before: Dec 12 22:47:54 2011 GMT
            Not After : Dec  9 22:47:54 2021 GMT
        Subject: C=US, ST=California, L=Mountain View, O=Test CA, CN=127.0.0.1
        Subject Public Key Info:
            Public Key Algorithm: id-ecPublicKey
            EC Public Key:
                pub: 
                    04:c6:80:6a:45:dd:d9:c1:83:91:b8:9f:d6:59:cb:
                    08:0d:5b:b1:b3:52:83:4d:e8:68:61:3e:df:df:82:
                    7c:84:63:ce:08:a9:8f:04:20:81:8d:ad:c0:80:25:
                    72:0e:b3:f3:06:fe:7c:46:0d:4d:cd:9f:0a:72:5b:
                    a5:7b:ee:f2:31
                ASN1 OID: prime256v1
        X509v3 extensions:
            X509v3 Subject Alternative Name: 
                IP Address:127.0.0.1
    Signature Algorithm: sha1WithRSAEncryption
        17:05:5c:7d:c4:c7:07:d1:08:09:fd:8f:01:29:8e:91:cd:de:
        d8:f2:22:66:86:63:b1:8b:fb:41:f9:46:31:f5:24:3f:19:a4:
        4b:40:4e:ef:e6:1a:5f:90:24:3d:04:3b:ae:42:17:be:a4:1d:
        0c:8d:b1:e3:8f:05:fd:d7:b5:a7:c1:ee:b6:97:72:1a:25:86:
        61:dc:31:11:81:af:20:3c:4a:c0:b1:ff:03:23:8c:7c:2b:94:
        e0:4b:25:74:7c:13:5e:0e:a7:72:e4:8e:a1:27:86:c4:ea:b1:
        a3:b7:f3:80:b6:5f:76:91:6b:04:d5:55:96:01:35:10:a6:33:
        4f:cc:ea:2f:d2:f1:fc:a4:a1:14:77:1f:61:a9:a1:c4:b5:90:
        bb:73:c1:ed:bb:63:47:a7:e8:27:a3:8e:27:88:c9:7e:dc:00:
        76:44:2e:89:a7:b0:ef:9f:bb:f2:58:e1:c5:01:7b:b1:a0:b2:
        dc:ce:c7:cf:a7:5d:0d:37:b8:86:4a:5a:61:9c:59:98:ef:4d:
        af:61:35:de:ed:5b:b2:94:16:7f:3d:2a:96:87:9e:63:0b:0d:
        80:ac:36:1b:ac:bf:2f:c8:4b:be:c2:6d:ea:8b:7b:e3:8f:b5:
        d6:62:0d:dc:c8:17:d4:eb:78:40:a4:9e:95:e7:38:75:c0:31:
        64:2b:ad:d8
-----BEGIN CERTIFICATE-----
MIICRzCCAS8CAgDyMA0GCSqGSIb3DQEBBQUAMCgxJjAkBgNVBAMMHTIwNDggcnNh
IFRlc3QgaW50ZXJtZWRpYXRlIENBMB4XDTExMTIxMjIyNDc1NFoXDTIxMTIwOTIy
NDc1NFowYDELMAkGA1UEBhMCVVMxEzARBgNVBAgMCkNhbGlmb3JuaWExFjAUBgNV
BAcMDU1vdW50YWluIFZpZXcxEDAOBgNVBAoMB1Rlc3QgQ0ExEjAQBgNVBAMMCTEy
Ny4wLjAuMTBZMBMGByqGSM49AgEGCCqGSM49AwEHA0IABMaAakXd2cGDkbif1lnL
CA1bsbNSg03oaGE+39+CfIRjzgipjwQggY2twIAlcg6z8wb+fEYNTc2fCnJbpXvu
8jGjEzARMA8GA1UdEQQIMAaHBH8AAAEwDQYJKoZIhvcNAQEFBQADggEBABcFXH3E
xwfRCAn9jwEpjpHN3tjyImaGY7GL+0H5RjH1JD8ZpEtATu/mGl+QJD0EO65CF76k
HQyNseOPBf3XtafB7raXcholhmHcMRGBryA8SsCx/wMjjHwrlOBLJXR8E14Op3Lk
jqEnhsTqsaO384C2X3aRawTVVZYBNRCmM0/M6i/S8fykoRR3H2GpocS1kLtzwe27
Y0en6CejjieIyX7cAHZELomnsO+fu/JY4cUBe7GgstzOx8+nXQ03uIZKWmGcWZjv
Ta9hNd7tW7KUFn89KpaHnmMLDYCsNhusvy/IS77CbeqLe+OPtdZiDdzIF9TreECk
npXnOHXAMWQrrdg=
-----END CERTIFICATE-----
