Certificate:
    Data:
        Version: 1 (0x0)
        Serial Number: 242 (0xf2)
        Signature Algorithm: ecdsa-with-SHA1
        Issuer: CN=prime256v1 ecdsa Test intermediate CA
        Validity
            Not Before: Dec 12 22:47:55 2011 GMT
            Not After : Dec  9 22:47:55 2021 GMT
        Subject: C=US, ST=California, L=Mountain View, O=Test CA, CN=127.0.0.1
        Subject Public Key Info:
            Public Key Algorithm: id-ecPublicKey
            EC Public Key:
                pub: 
                    04:79:bf:01:56:fb:d3:32:5c:95:eb:7f:78:d3:ec:
                    bc:4d:df:ae:5f:58:ed:c1:c8:21:a8:23:96:6d:37:
                    b1:ea:21:a6:3e:4a:2e:36:1d:d9:3f:ff:b2:8d:36:
                    10:02:44:38:8a:a7:63:d0:b1:89:6b:2e:da:e2:a9:
                    f2:c6:fa:66:a5
                ASN1 OID: prime256v1
        X509v3 extensions:
            X509v3 Subject Alternative Name: 
                IP Address:127.0.0.1
    Signature Algorithm: ecdsa-with-SHA1
        30:46:02:21:00:8d:99:02:83:bf:bd:8d:45:06:7f:1b:3e:e3:
        61:31:3e:93:ca:27:62:f3:7a:6f:1e:b6:6b:67:26:c4:ee:95:
        e9:02:21:00:d6:34:24:c3:53:8e:56:92:0a:fb:2b:bf:b2:33:
        3a:2d:7a:23:7e:a8:d3:d1:67:42:e0:b0:4e:c6:01:b6:a0:8a
-----BEGIN CERTIFICATE-----
MIIBjTCCATMCAgDyMAkGByqGSM49BAEwMDEuMCwGA1UEAwwlcHJpbWUyNTZ2MSBl
Y2RzYSBUZXN0IGludGVybWVkaWF0ZSBDQTAeFw0xMTEyMTIyMjQ3NTVaFw0yMTEy
MDkyMjQ3NTVaMGAxCzAJBgNVBAYTAlVTMRMwEQYDVQQIDApDYWxpZm9ybmlhMRYw
FAYDVQQHDA1Nb3VudGFpbiBWaWV3MRAwDgYDVQQKDAdUZXN0IENBMRIwEAYDVQQD
DAkxMjcuMC4wLjEwWTATBgcqhkjOPQIBBggqhkjOPQMBBwNCAAR5vwFW+9MyXJXr
f3jT7LxN365fWO3ByCGoI5ZtN7HqIaY+Si42Hdk//7KNNhACRDiKp2PQsYlrLtri
qfLG+maloxMwETAPBgNVHREECDAGhwR/AAABMAkGByqGSM49BAEDSQAwRgIhAI2Z
AoO/vY1FBn8bPuNhMT6Tyidi83pvHrZrZybE7pXpAiEA1jQkw1OOVpIK+yu/sjM6
LXojfqjT0WdC4LBOxgG2oIo=
-----END CERTIFICATE-----
