Certificate:
    Data:
        Version: 3 (0x2)
        Serial Number: 242 (0xf2)
        Signature Algorithm: sha1WithRSAEncryption
        Issuer: CN=2048 RSA Test Root CA
        Validity
            Not Before: Dec 12 22:47:53 2011 GMT
            Not After : Dec  9 22:47:53 2021 GMT
        Subject: CN=prime256v1 ecdsa Test intermediate CA
        Subject Public Key Info:
            Public Key Algorithm: id-ecPublicKey
            EC Public Key:
                pub: 
                    04:d1:35:14:53:74:2f:e1:e4:9b:41:9e:42:9d:10:
                    6b:0b:f4:16:8f:bc:a7:c7:a4:39:09:73:34:cb:87:
                    df:2f:7e:4a:5f:b1:b5:e4:dc:49:41:4e:a8:81:34:
                    b5:da:7d:27:7d:05:c1:bd:0a:29:6d:ad:a3:5d:37:
                    7b:56:b7:1b:60
                ASN1 OID: prime256v1
        X509v3 extensions:
            X509v3 Basic Constraints: critical
                CA:TRUE
            X509v3 Subject Key Identifier: 
                95:31:9C:D4:B9:C2:F8:A6:08:71:5F:3A:17:F7:2C:1E:A9:AD:46:41
            X509v3 Key Usage: critical
                Certificate Sign, CRL Sign
    Signature Algorithm: sha1WithRSAEncryption
        22:38:c0:f9:09:fc:7b:2d:d3:31:8e:eb:7d:bb:b9:78:b7:89:
        f4:7a:85:b4:f8:0f:2a:1b:a5:c3:53:f1:55:a4:bd:a3:dd:d2:
        2d:e5:af:63:bd:fc:eb:6d:95:90:7a:de:1e:ed:fa:a9:b4:df:
        82:f1:22:10:3a:b9:c7:a1:23:d0:9f:2a:60:81:61:83:a0:e6:
        2b:de:b7:a0:4e:f6:81:a7:8f:02:c7:14:06:16:f1:9e:85:c9:
        7d:7d:f3:31:aa:78:cd:a9:a8:81:5b:e4:26:2f:fa:93:e7:6a:
        6e:a8:2f:1b:0a:b9:20:cc:f0:93:89:81:43:58:c8:b6:0a:40:
        d3:24:b9:e9:c6:64:93:13:16:9c:0b:e8:bd:77:91:6e:96:bf:
        22:85:db:ba:88:5b:db:18:9a:5d:10:5d:45:07:ba:99:9b:60:
        c0:30:4b:41:64:20:03:fa:97:94:82:59:5b:85:e6:f3:be:a5:
        e8:c9:52:11:1a:62:e1:f0:24:7e:47:30:e2:e2:8d:8c:5b:84:
        10:ec:cc:f5:d2:4c:9e:47:ea:20:66:20:31:0f:8b:03:77:b3:
        b6:54:9f:b4:7a:60:6e:1a:63:47:9f:b4:00:b7:7c:35:be:58:
        e3:8b:22:0e:3d:79:b9:6f:0e:4f:05:06:1a:16:e1:b9:92:1c:
        ea:f5:ef:9d
-----BEGIN CERTIFICATE-----
MIICQzCCASugAwIBAgICAPIwDQYJKoZIhvcNAQEFBQAwIDEeMBwGA1UEAwwVMjA0
OCBSU0EgVGVzdCBSb290IENBMB4XDTExMTIxMjIyNDc1M1oXDTIxMTIwOTIyNDc1
M1owMDEuMCwGA1UEAwwlcHJpbWUyNTZ2MSBlY2RzYSBUZXN0IGludGVybWVkaWF0
ZSBDQTBZMBMGByqGSM49AgEGCCqGSM49AwEHA0IABNE1FFN0L+Hkm0GeQp0Qawv0
Fo+8p8ekOQlzNMuH3y9+Sl+xteTcSUFOqIE0tdp9J30Fwb0KKW2to103e1a3G2Cj
QjBAMA8GA1UdEwEB/wQFMAMBAf8wHQYDVR0OBBYEFJUxnNS5wvimCHFfOhf3LB6p
rUZBMA4GA1UdDwEB/wQEAwIBBjANBgkqhkiG9w0BAQUFAAOCAQEAIjjA+Qn8ey3T
MY7rfbu5eLeJ9HqFtPgPKhulw1PxVaS9o93SLeWvY738622VkHreHu36qbTfgvEi
EDq5x6Ej0J8qYIFhg6DmK963oE72gaePAscUBhbxnoXJfX3zMap4zamogVvkJi/6
k+dqbqgvGwq5IMzwk4mBQ1jItgpA0yS56cZkkxMWnAvovXeRbpa/IoXbuohb2xia
XRBdRQe6mZtgwDBLQWQgA/qXlIJZW4Xm876l6MlSERpi4fAkfkcw4uKNjFuEEOzM
9dJMnkfqIGYgMQ+LA3eztlSftHpgbhpjR5+0ALd8Nb5Y44siDj15uW8OTwUGGhbh
uZIc6vXvnQ==
-----END CERTIFICATE-----
