Certificate:
    Data:
        Version: 1 (0x0)
        Serial Number: 242 (0xf2)
        Signature Algorithm: sha1WithRSAEncryption
        Issuer: CN=1024 rsa Test intermediate CA
        Validity
            Not Before: Dec 12 22:47:54 2011 GMT
            Not After : Dec  9 22:47:54 2021 GMT
        Subject: C=US, ST=California, L=Mountain View, O=Test CA, CN=127.0.0.1
        Subject Public Key Info:
            Public Key Algorithm: id-ecPublicKey
            EC Public Key:
                pub: 
                    04:c6:da:96:04:72:10:1a:ac:92:fd:d6:23:1e:c5:
                    cc:92:2e:09:2e:76:39:a4:d5:ca:e3:c1:2d:e4:8e:
                    b1:84:90:9d:6e:6a:ca:46:48:22:80:50:ed:80:83:
                    b8:43:96:c7:be:77:a8:23:f3:bf:f4:0f:c6:78:55:
                    8f:0c:9e:6d:a6
                ASN1 OID: prime256v1
        X509v3 extensions:
            X509v3 Subject Alternative Name: 
                IP Address:127.0.0.1
    Signature Algorithm: sha1WithRSAEncryption
        54:45:00:a1:6b:41:42:0b:5f:ac:23:75:06:2c:58:e7:46:05:
        1e:f1:f6:cb:37:e6:d2:3d:84:db:0c:b8:fd:4d:d6:f5:13:ff:
        1a:22:14:01:fe:ff:09:8d:e3:fd:64:68:12:7e:d1:ae:31:cb:
        c4:17:99:fe:20:1e:68:7c:d7:d6:93:f6:2e:88:d0:89:34:8e:
        a6:59:17:1e:4f:2a:53:69:9a:46:5a:80:91:65:47:ca:17:87:
        5e:2d:b8:41:bf:05:fa:80:fb:57:20:23:d6:99:5e:7e:5d:bf:
        bc:6d:0b:83:86:53:bb:28:f1:4a:83:3c:32:14:06:00:ce:cc:
        62:d7
-----BEGIN CERTIFICATE-----
MIIBxjCCAS8CAgDyMA0GCSqGSIb3DQEBBQUAMCgxJjAkBgNVBAMMHTEwMjQgcnNh
IFRlc3QgaW50ZXJtZWRpYXRlIENBMB4XDTExMTIxMjIyNDc1NFoXDTIxMTIwOTIy
NDc1NFowYDELMAkGA1UEBhMCVVMxEzARBgNVBAgMCkNhbGlmb3JuaWExFjAUBgNV
BAcMDU1vdW50YWluIFZpZXcxEDAOBgNVBAoMB1Rlc3QgQ0ExEjAQBgNVBAMMCTEy
Ny4wLjAuMTBZMBMGByqGSM49AgEGCCqGSM49AwEHA0IABMbalgRyEBqskv3WIx7F
zJIuCS52OaTVyuPBLeSOsYSQnW5qykZIIoBQ7YCDuEOWx753qCPzv/QPxnhVjwye
baajEzARMA8GA1UdEQQIMAaHBH8AAAEwDQYJKoZIhvcNAQEFBQADgYEAVEUAoWtB
QgtfrCN1BixY50YFHvH2yzfm0j2E2wy4/U3W9RP/GiIUAf7/CY3j/WRoEn7RrjHL
xBeZ/iAeaHzX1pP2LojQiTSOplkXHk8qU2maRlqAkWVHyheHXi24Qb8F+oD7VyAj
1plefl2/vG0Lg4ZTuyjxSoM8MhQGAM7MYtc=
-----END CERTIFICATE-----
