Certificate:
    Data:
        Version: 3 (0x2)
        Serial Number:
            e4:6f:98:d6:b9:79:70:02
        Signature Algorithm: sha1WithRSAEncryption
        Issuer: C=US, ST=California, L=Mountain View, O=Test CA, CN=127.0.0.1
        Validity
            Not Before: Sep 12 21:47:23 2012 GMT
            Not After : Sep 10 21:47:23 2022 GMT
        Subject: C=US, ST=California, L=Mountain View, O=Test CA, CN=127.0.0.1
        Subject Public Key Info:
            Public Key Algorithm: rsaEncryption
            RSA Public Key: (1024 bit)
                Modulus (1024 bit):
                    00:d2:e6:4b:b7:a0:a3:5e:f7:af:fa:36:12:59:1e:
                    c8:bd:0c:ef:eb:be:71:a2:79:88:9b:7e:99:46:80:
                    bf:53:31:1e:d0:88:a1:38:22:8c:86:f1:12:7c:6b:
                    bd:2d:75:53:3a:61:65:2f:2e:98:f3:03:8b:6b:44:
                    93:ef:a2:a9:67:aa:cc:b6:43:c4:ab:c7:a0:27:8b:
                    7f:a6:7f:ea:d6:7f:0f:0a:54:52:f8:d2:cd:21:f2:
                    07:6c:f4:e1:1c:e6:29:a8:79:25:9e:e5:31:38:1e:
                    45:d0:2c:48:6b:1d:2a:fd:71:07:bf:03:1a:c1:0b:
                    39:0f:3e:9a:98:4f:2c:fa:83
                Exponent: 65537 (0x10001)
        X509v3 extensions:
            X509v3 Subject Alternative Name: 
                DNS:www.example.org, DNS:mail.example.org, DNS:mail.example.com
    Signature Algorithm: sha1WithRSAEncryption
        8e:b2:bb:67:8d:15:c5:ce:85:ec:b4:15:80:03:5c:f3:3c:b4:
        79:0c:27:e9:0d:4c:3d:80:d7:4f:b0:38:7c:f1:b2:0e:59:8e:
        81:66:f4:b7:21:0b:ca:05:e8:0e:a8:74:c2:b5:39:47:16:7d:
        01:43:8d:ac:10:21:a0:25:a9:66:b6:29:5d:ee:50:ba:4b:70:
        fb:02:5d:fb:20:c5:7d:90:ae:24:2a:f1:32:25:cd:4f:7b:0a:
        c9:31:b3:7e:3f:49:b4:4d:2e:14:24:73:7d:05:6a:f7:e3:92:
        cc:34:e3:46:b8:08:88:50:8b:d8:9d:cb:22:7c:5a:9d:4d:2b:
        1f:55
-----BEGIN CERTIFICATE-----
MIICgDCCAemgAwIBAgIJAORvmNa5eXACMA0GCSqGSIb3DQEBBQUAMGAxCzAJBgNV
BAYTAlVTMRMwEQYDVQQIDApDYWxpZm9ybmlhMRYwFAYDVQQHDA1Nb3VudGFpbiBW
aWV3MRAwDgYDVQQKDAdUZXN0IENBMRIwEAYDVQQDDAkxMjcuMC4wLjEwHhcNMTIw
OTEyMjE0NzIzWhcNMjIwOTEwMjE0NzIzWjBgMQswCQYDVQQGEwJVUzETMBEGA1UE
CAwKQ2FsaWZvcm5pYTEWMBQGA1UEBwwNTW91bnRhaW4gVmlldzEQMA4GA1UECgwH
VGVzdCBDQTESMBAGA1UEAwwJMTI3LjAuMC4xMIGfMA0GCSqGSIb3DQEBAQUAA4GN
ADCBiQKBgQDS5ku3oKNe96/6NhJZHsi9DO/rvnGieYibfplGgL9TMR7QiKE4IoyG
8RJ8a70tdVM6YWUvLpjzA4trRJPvoqlnqsy2Q8Srx6Ani3+mf+rWfw8KVFL40s0h
8gds9OEc5imoeSWe5TE4HkXQLEhrHSr9cQe/AxrBCzkPPpqYTyz6gwIDAQABo0Iw
QDA+BgNVHREENzA1gg93d3cuZXhhbXBsZS5vcmeCEG1haWwuZXhhbXBsZS5vcmeC
EG1haWwuZXhhbXBsZS5jb20wDQYJKoZIhvcNAQEFBQADgYEAjrK7Z40Vxc6F7LQV
gANc8zy0eQwn6Q1MPYDXT7A4fPGyDlmOgWb0tyELygXoDqh0wrU5RxZ9AUONrBAh
oCWpZrYpXe5Quktw+wJd+yDFfZCuJCrxMiXNT3sKyTGzfj9JtE0uFCRzfQVq9+OS
zDTjRrgIiFCL2J3LInxanU0rH1U=
-----END CERTIFICATE-----
