Certificate:
    Data:
        Version: 3 (0x2)
        Serial Number: 17778064637999560130 (0xf6b85f9895e5b5c2)
    Signature Algorithm: sha1WithRSAEncryption
        Issuer: C=US, ST=California, L=Mountain View, O=Test CA, CN=127.0.0.1
        Validity
            Not Before: Aug 16 02:31:34 2013 GMT
            Not After : Aug 14 02:31:34 2023 GMT
        Subject: C=US, ST=California, L=Mountain View, O=Test CA, CN=127.0.0.1
        Subject Public Key Info:
            Public Key Algorithm: rsaEncryption
                Public-Key: (1024 bit)
                Modulus:
                    00:bf:11:d3:18:37:84:53:8b:07:d3:7d:0a:dc:f7:
                    fc:ed:ce:8d:72:3a:29:af:17:e2:2b:d0:99:5f:3c:
                    7b:29:a9:a8:3d:02:42:19:82:0b:df:5d:95:ac:60:
                    d9:08:69:ed:90:36:42:57:39:87:4c:cc:1e:8a:1d:
                    7e:92:bb:7e:02:df:02:80:48:3f:38:21:cc:e9:d1:
                    b5:34:01:8f:92:17:ed:97:1d:11:2b:dd:df:fc:74:
                    f4:d6:66:9f:e3:e5:10:ea:ea:53:b2:a7:78:4b:96:
                    31:06:38:0b:fa:0f:d8:58:9b:ff:2a:1f:2d:8c:ae:
                    6c:42:73:4c:d2:cf:1b:b7:d1
                Exponent: 65537 (0x10001)
        X509v3 extensions:
            X509v3 Basic Constraints: critical
                CA:TRUE
            X509v3 Subject Alternative Name: 
                IP Address:127.0.0.2, IP Address:FE80:0:0:0:0:0:0:1, DNS:test.example, email:test@test.example, othername:<unsupported>, DirName:/CN=127.0.0.3
    Signature Algorithm: sha1WithRSAEncryption
         ad:99:a8:25:29:15:1f:b8:c7:27:f0:c8:d7:2a:2a:66:54:07:
         2b:2c:b4:1e:fe:27:07:29:da:22:3d:7a:d8:4d:81:72:78:3e:
         96:5d:4c:42:ce:8c:c5:d1:d9:b3:ac:92:99:19:e5:2a:32:8a:
         bc:ce:fb:58:a0:b9:e7:4b:44:d8:0c:2c:30:2f:fa:6c:48:7e:
         23:77:4f:67:e9:72:83:39:22:6f:2b:4d:25:16:3d:98:be:01:
         31:a0:55:0a:85:78:b8:b9:9c:66:e6:cb:7b:81:1c:fc:84:d1:
         79:1b:41:12:21:f8:c9:5b:fd:3c:a6:e4:6d:36:5b:0a:4c:aa:
         bb:2b
-----BEGIN CERTIFICATE-----
MIICwzCCAiygAwIBAgIJAPa4X5iV5bXCMA0GCSqGSIb3DQEBBQUAMGAxCzAJBgNV
BAYTAlVTMRMwEQYDVQQIDApDYWxpZm9ybmlhMRYwFAYDVQQHDA1Nb3VudGFpbiBW
aWV3MRAwDgYDVQQKDAdUZXN0IENBMRIwEAYDVQQDDAkxMjcuMC4wLjEwHhcNMTMw
ODE2MDIzMTM0WhcNMjMwODE0MDIzMTM0WjBgMQswCQYDVQQGEwJVUzETMBEGA1UE
CAwKQ2FsaWZvcm5pYTEWMBQGA1UEBwwNTW91bnRhaW4gVmlldzEQMA4GA1UECgwH
VGVzdCBDQTESMBAGA1UEAwwJMTI3LjAuMC4xMIGfMA0GCSqGSIb3DQEBAQUAA4GN
ADCBiQKBgQC/EdMYN4RTiwfTfQrc9/ztzo1yOimvF+Ir0JlfPHspqag9AkIZggvf
XZWsYNkIae2QNkJXOYdMzB6KHX6Su34C3wKASD84Iczp0bU0AY+SF+2XHREr3d/8
dPTWZp/j5RDq6lOyp3hLljEGOAv6D9hYm/8qHy2MrmxCc0zSzxu30QIDAQABo4GE
MIGBMA8GA1UdEwEB/wQFMAMBAf8wbgYDVR0RBGcwZYcEfwAAAocQ/oAAAAAAAAAA
AAAAAAAAAYIMdGVzdC5leGFtcGxlgRF0ZXN0QHRlc3QuZXhhbXBsZaASBgMqAwSg
CwwJaWdub3JlIG1lpBYwFDESMBAGA1UEAwwJMTI3LjAuMC4zMA0GCSqGSIb3DQEB
BQUAA4GBAK2ZqCUpFR+4xyfwyNcqKmZUBysstB7+Jwcp2iI9ethNgXJ4PpZdTELO
jMXR2bOskpkZ5SoyirzO+1iguedLRNgMLDAv+mxIfiN3T2fpcoM5Im8rTSUWPZi+
ATGgVQqFeLi5nGbmy3uBHPyE0XkbQRIh+Mlb/Tym5G02WwpMqrsr
-----END CERTIFICATE-----
