Certificate:
    Data:
        Version: 3 (0x2)
        Serial Number: 3 (0x3)
    Signature Algorithm: sha256WithRSAEncryption
        Issuer: CN=Root
        Validity
            Not Before: Jan  1 12:00:00 2015 GMT
            Not After : Jan  1 12:00:00 2016 GMT
        Subject: CN=I
        Subject Public Key Info:
            Public Key Algorithm: rsaEncryption
                Public-Key: (2048 bit)
                Modulus:
                    00:b5:e8:71:e7:b5:df:bb:21:d3:c0:0f:1a:19:d7:
                    44:16:1b:b3:57:12:9c:73:16:fc:42:28:38:87:c6:
                    f8:12:16:3b:3b:c4:1d:54:0d:5e:30:32:84:b3:89:
                    6d:d0:a9:e0:46:84:70:e1:e2:2f:e2:d8:9d:d8:a6:
                    a9:2f:2a:e1:13:59:1b:e1:1e:fe:f6:31:62:55:9a:
                    ee:5f:05:4c:5a:97:ce:2e:05:cb:cd:06:df:ee:ef:
                    50:0f:7b:29:1b:5d:2f:94:8a:75:02:70:a1:8b:a3:
                    ac:06:10:8f:26:f0:23:19:08:e9:7c:c3:ee:77:98:
                    72:03:4b:c3:ce:ff:c5:de:5e:62:4b:ff:62:71:eb:
                    65:5a:1f:90:cd:4e:ef:fa:53:71:d4:fb:31:84:bc:
                    99:40:4b:5c:6c:9b:be:bd:ac:43:77:3b:9d:6a:02:
                    37:de:b6:e5:c2:6a:d5:2e:a9:87:28:6a:37:69:fa:
                    6b:2c:b1:8a:2f:b6:07:97:9d:9d:b6:2d:ec:22:33:
                    da:98:eb:fd:39:35:49:24:a6:05:dc:c9:5c:74:cb:
                    61:46:8c:44:33:99:e5:30:e7:5f:73:c9:13:ad:6f:
                    90:df:d1:4e:fe:fd:04:26:fd:10:7d:79:db:8d:5c:
                    ea:99:77:37:97:cd:9d:ee:7e:17:0d:f9:71:1c:80:
                    55:69
                Exponent: 65537 (0x10001)
        X509v3 extensions:
            X509v3 Subject Key Identifier: 
                5D:B4:73:AA:1B:60:10:9E:0C:BC:16:BB:A4:0A:58:0D:B6:28:0E:04
            X509v3 Authority Key Identifier: 
                keyid:0B:35:14:81:E3:D0:95:6E:A1:38:0E:3D:04:9D:D5:04:3E:6B:24:13

            Authority Information Access: 
                CA Issuers - URI:http://url-for-aia/Root.cer

            X509v3 CRL Distribution Points: 

                Full Name:
                  URI:http://url-for-crl/Root.crl

            X509v3 Key Usage: critical
                Certificate Sign, CRL Sign
            X509v3 Basic Constraints: critical
                CA:TRUE
    Signature Algorithm: sha256WithRSAEncryption
         59:52:db:3a:6c:2d:04:1b:03:69:d4:39:56:7f:48:70:84:33:
         70:c2:d0:fa:5d:5a:de:f9:0b:71:35:3c:e4:57:cf:c7:25:89:
         e7:3d:cf:68:a7:53:5f:c6:67:09:ce:d1:c4:25:6f:ca:5a:c6:
         15:d0:6c:89:0f:f5:ec:87:ec:5c:9a:61:f7:67:66:23:e6:df:
         1b:88:fc:03:0b:02:22:5d:fa:20:92:cf:8e:1b:0d:44:48:01:
         09:21:6c:cb:55:16:36:cd:ba:a7:48:c0:ff:fb:0e:40:75:3f:
         1f:b4:9c:8b:9a:ed:a7:05:3b:c7:bf:86:22:a6:13:fb:8d:dd:
         61:e0:30:1f:62:fb:12:d7:c2:ed:25:5d:70:7b:df:9a:54:b3:
         0f:65:5c:1f:e0:2a:70:3c:38:2e:d1:bf:71:97:d5:cf:64:dd:
         d0:56:7d:b3:2b:88:31:e9:e3:79:29:9b:0a:be:ef:bf:f2:f3:
         60:e9:20:bc:7d:60:a5:44:a5:23:8d:00:22:62:5d:ce:45:c9:
         32:68:03:74:38:3e:00:f9:9e:c3:ae:0c:72:d8:c8:53:aa:d3:
         40:19:68:9d:b4:03:fd:09:2d:7c:8f:2b:4b:7e:7d:48:ed:82:
         f5:07:07:4d:8c:5d:4a:87:6f:7c:30:6d:ae:5b:31:7f:20:6d:
         03:de:37:4d
-----BEGIN CERTIFICATE-----
MIIDYjCCAkqgAwIBAgIBAzANBgkqhkiG9w0BAQsFADAPMQ0wCwYDVQQDDARSb290
MB4XDTE1MDEwMTEyMDAwMFoXDTE2MDEwMTEyMDAwMFowDDEKMAgGA1UEAwwBSTCC
ASIwDQYJKoZIhvcNAQEBBQADggEPADCCAQoCggEBALXocee137sh08APGhnXRBYb
s1cSnHMW/EIoOIfG+BIWOzvEHVQNXjAyhLOJbdCp4EaEcOHiL+LYndimqS8q4RNZ
G+Ee/vYxYlWa7l8FTFqXzi4Fy80G3+7vUA97KRtdL5SKdQJwoYujrAYQjybwIxkI
6XzD7neYcgNLw87/xd5eYkv/YnHrZVofkM1O7/pTcdT7MYS8mUBLXGybvr2sQ3c7
nWoCN9625cJq1S6phyhqN2n6ayyxii+2B5ednbYt7CIz2pjr/Tk1SSSmBdzJXHTL
YUaMRDOZ5TDnX3PJE61vkN/RTv79BCb9EH15241c6pl3N5fNne5+Fw35cRyAVWkC
AwEAAaOByzCByDAdBgNVHQ4EFgQUXbRzqhtgEJ4MvBa7pApYDbYoDgQwHwYDVR0j
BBgwFoAUCzUUgePQlW6hOA49BJ3VBD5rJBMwNwYIKwYBBQUHAQEEKzApMCcGCCsG
AQUFBzAChhtodHRwOi8vdXJsLWZvci1haWEvUm9vdC5jZXIwLAYDVR0fBCUwIzAh
oB+gHYYbaHR0cDovL3VybC1mb3ItY3JsL1Jvb3QuY3JsMA4GA1UdDwEB/wQEAwIB
BjAPBgNVHRMBAf8EBTADAQH/MA0GCSqGSIb3DQEBCwUAA4IBAQBZUts6bC0EGwNp
1DlWf0hwhDNwwtD6XVre+QtxNTzkV8/HJYnnPc9op1NfxmcJztHEJW/KWsYV0GyJ
D/Xsh+xcmmH3Z2Yj5t8biPwDCwIiXfogks+OGw1ESAEJIWzLVRY2zbqnSMD/+w5A
dT8ftJyLmu2nBTvHv4YiphP7jd1h4DAfYvsS18LtJV1we9+aVLMPZVwf4CpwPDgu
0b9xl9XPZN3QVn2zK4gx6eN5KZsKvu+/8vNg6SC8fWClRKUjjQAiYl3ORckyaAN0
OD4A+Z7Drgxy2MhTqtNAGWidtAP9CS18jytLfn1I7YL1BwdNjF1Kh298MG2uWzF/
IG0D3jdN
-----END CERTIFICATE-----
