Certificate:
    Data:
        Version: 3 (0x2)
        Serial Number: 4 (0x4)
    Signature Algorithm: sha256WithRSAEncryption
        Issuer: CN=Root
        Validity
            Not Before: Jan  1 12:00:00 2015 GMT
            Not After : Jan  1 12:00:00 2016 GMT
        Subject: CN=I
        Subject Public Key Info:
            Public Key Algorithm: rsaEncryption
                Public-Key: (2048 bit)
                Modulus:
                    00:b5:e8:71:e7:b5:df:bb:21:d3:c0:0f:1a:19:d7:
                    44:16:1b:b3:57:12:9c:73:16:fc:42:28:38:87:c6:
                    f8:12:16:3b:3b:c4:1d:54:0d:5e:30:32:84:b3:89:
                    6d:d0:a9:e0:46:84:70:e1:e2:2f:e2:d8:9d:d8:a6:
                    a9:2f:2a:e1:13:59:1b:e1:1e:fe:f6:31:62:55:9a:
                    ee:5f:05:4c:5a:97:ce:2e:05:cb:cd:06:df:ee:ef:
                    50:0f:7b:29:1b:5d:2f:94:8a:75:02:70:a1:8b:a3:
                    ac:06:10:8f:26:f0:23:19:08:e9:7c:c3:ee:77:98:
                    72:03:4b:c3:ce:ff:c5:de:5e:62:4b:ff:62:71:eb:
                    65:5a:1f:90:cd:4e:ef:fa:53:71:d4:fb:31:84:bc:
                    99:40:4b:5c:6c:9b:be:bd:ac:43:77:3b:9d:6a:02:
                    37:de:b6:e5:c2:6a:d5:2e:a9:87:28:6a:37:69:fa:
                    6b:2c:b1:8a:2f:b6:07:97:9d:9d:b6:2d:ec:22:33:
                    da:98:eb:fd:39:35:49:24:a6:05:dc:c9:5c:74:cb:
                    61:46:8c:44:33:99:e5:30:e7:5f:73:c9:13:ad:6f:
                    90:df:d1:4e:fe:fd:04:26:fd:10:7d:79:db:8d:5c:
                    ea:99:77:37:97:cd:9d:ee:7e:17:0d:f9:71:1c:80:
                    55:69
                Exponent: 65537 (0x10001)
        X509v3 extensions:
            X509v3 Subject Key Identifier: 
                5D:B4:73:AA:1B:60:10:9E:0C:BC:16:BB:A4:0A:58:0D:B6:28:0E:04
            X509v3 Authority Key Identifier: 
                keyid:0B:35:14:81:E3:D0:95:6E:A1:38:0E:3D:04:9D:D5:04:3E:6B:24:13

            Authority Information Access: 
                CA Issuers - URI:http://url-for-aia/Root.cer

            X509v3 CRL Distribution Points: 

                Full Name:
                  URI:http://url-for-crl/Root.crl

            X509v3 Key Usage: critical
                Certificate Sign, CRL Sign
            X509v3 Basic Constraints: critical
                CA:TRUE
    Signature Algorithm: sha256WithRSAEncryption
         80:76:99:29:e2:95:11:a8:d8:05:69:81:46:d0:c2:fd:95:8f:
         08:84:61:6f:80:53:6e:82:ad:70:0c:7c:7b:41:03:c8:e0:10:
         f6:61:26:3f:b9:49:5d:88:84:54:e1:4c:aa:d2:85:6f:91:96:
         d1:5a:c1:1b:74:4b:3a:fe:e0:b3:e8:01:65:69:c0:3a:a4:cd:
         d0:ca:1b:50:71:29:ef:e8:de:a6:e7:a0:89:1b:d2:36:6f:be:
         b1:32:84:29:f1:37:33:a7:62:f0:da:00:9c:51:6e:96:65:57:
         18:5f:a8:7c:66:a9:b8:0f:8e:72:30:99:9a:db:40:eb:bd:a7:
         f4:80:10:ed:84:3b:d3:e3:64:f2:58:cf:4c:2b:ca:3c:56:ef:
         6d:95:f5:8c:cf:86:c6:05:79:11:70:7b:24:58:60:66:60:42:
         6f:92:75:d2:8b:1d:21:8a:5e:c6:5e:17:16:38:9f:73:6e:a0:
         a4:52:bb:17:c9:fb:c9:3d:0c:a9:a4:48:4e:b4:d7:9f:a3:34:
         99:a0:83:6a:4f:2f:c6:a0:1c:5e:99:00:0a:24:af:6c:0b:ee:
         2b:86:2d:9d:83:f6:3e:c1:3c:cb:8f:7d:a1:da:69:e1:18:af:
         e7:ec:0a:31:5a:42:06:46:fe:e0:d1:0a:1a:f5:eb:f2:b5:3e:
         5d:b2:6e:86
-----BEGIN CERTIFICATE-----
MIIDYjCCAkqgAwIBAgIBBDANBgkqhkiG9w0BAQsFADAPMQ0wCwYDVQQDDARSb290
MB4XDTE1MDEwMTEyMDAwMFoXDTE2MDEwMTEyMDAwMFowDDEKMAgGA1UEAwwBSTCC
ASIwDQYJKoZIhvcNAQEBBQADggEPADCCAQoCggEBALXocee137sh08APGhnXRBYb
s1cSnHMW/EIoOIfG+BIWOzvEHVQNXjAyhLOJbdCp4EaEcOHiL+LYndimqS8q4RNZ
G+Ee/vYxYlWa7l8FTFqXzi4Fy80G3+7vUA97KRtdL5SKdQJwoYujrAYQjybwIxkI
6XzD7neYcgNLw87/xd5eYkv/YnHrZVofkM1O7/pTcdT7MYS8mUBLXGybvr2sQ3c7
nWoCN9625cJq1S6phyhqN2n6ayyxii+2B5ednbYt7CIz2pjr/Tk1SSSmBdzJXHTL
YUaMRDOZ5TDnX3PJE61vkN/RTv79BCb9EH15241c6pl3N5fNne5+Fw35cRyAVWkC
AwEAAaOByzCByDAdBgNVHQ4EFgQUXbRzqhtgEJ4MvBa7pApYDbYoDgQwHwYDVR0j
BBgwFoAUCzUUgePQlW6hOA49BJ3VBD5rJBMwNwYIKwYBBQUHAQEEKzApMCcGCCsG
AQUFBzAChhtodHRwOi8vdXJsLWZvci1haWEvUm9vdC5jZXIwLAYDVR0fBCUwIzAh
oB+gHYYbaHR0cDovL3VybC1mb3ItY3JsL1Jvb3QuY3JsMA4GA1UdDwEB/wQEAwIB
BjAPBgNVHRMBAf8EBTADAQH/MA0GCSqGSIb3DQEBCwUAA4IBAQCAdpkp4pURqNgF
aYFG0ML9lY8IhGFvgFNugq1wDHx7QQPI4BD2YSY/uUldiIRU4Uyq0oVvkZbRWsEb
dEs6/uCz6AFlacA6pM3QyhtQcSnv6N6m56CJG9I2b76xMoQp8Tczp2Lw2gCcUW6W
ZVcYX6h8Zqm4D45yMJma20Drvaf0gBDthDvT42TyWM9MK8o8Vu9tlfWMz4bGBXkR
cHskWGBmYEJvknXSix0hil7GXhcWOJ9zbqCkUrsXyfvJPQyppEhOtNefozSZoINq
Ty/GoBxemQAKJK9sC+4rhi2dg/Y+wTzLj32h2mnhGK/n7AoxWkIGRv7g0Qoa9evy
tT5dsm6G
-----END CERTIFICATE-----
