Certificate:
    Data:
        Version: 3 (0x2)
        Serial Number: 1 (0x1)
    Signature Algorithm: sha256WithRSAEncryption
        Issuer: CN=I
        Validity
            Not Before: Jan  1 12:00:00 2015 GMT
            Not After : Jan  1 12:00:00 2016 GMT
        Subject: CN=target
        Subject Public Key Info:
            Public Key Algorithm: rsaEncryption
                Public-Key: (2048 bit)
                Modulus:
                    00:ae:5d:18:71:d9:81:dc:0d:29:3f:0c:ce:dc:3e:
                    00:69:7e:c9:5a:e4:4a:f8:4d:6c:3d:f3:76:0f:ab:
                    64:37:df:e1:59:f9:ee:1e:4f:5b:5f:5a:0e:a7:00:
                    1d:60:7e:cc:35:e7:5e:00:a6:a2:33:10:af:07:14:
                    46:26:47:3a:02:cf:7f:60:e5:59:da:64:88:1e:ff:
                    89:f3:27:82:db:aa:9e:12:a0:5a:73:ea:ca:ac:8b:
                    c9:03:fc:4c:76:f5:2d:b6:d0:05:42:78:2f:dc:5a:
                    47:e4:92:66:0e:8b:05:f1:2d:fb:da:3b:74:24:74:
                    d4:9b:40:15:a0:a2:a4:03:0b:24:99:eb:9d:e1:b9:
                    9a:0c:6e:63:95:37:bf:c9:7a:5d:a5:3f:84:49:e0:
                    d4:44:e5:17:4d:45:5f:5f:89:d8:28:98:03:1e:9c:
                    98:95:ab:7e:59:2c:3b:8f:82:92:14:d5:b4:ea:52:
                    10:e8:c5:3d:29:59:de:87:3e:d7:6f:36:41:a8:34:
                    ee:9c:e5:53:fd:b1:60:18:24:05:81:d9:53:fa:12:
                    45:3e:23:17:d2:e2:6f:d4:9a:53:ac:f8:b6:26:6d:
                    88:0f:bc:f2:d9:f9:a7:bc:d3:23:b8:de:02:42:1b:
                    a6:e0:93:c2:5e:ce:25:a4:4b:9b:9d:de:c9:29:b1:
                    73:6b
                Exponent: 65537 (0x10001)
        X509v3 extensions:
            X509v3 Subject Key Identifier: 
                70:30:09:0C:81:B0:13:AF:D5:9F:37:C7:F4:F2:B7:02:35:CD:6A:49
            X509v3 Authority Key Identifier: 
                keyid:5D:B4:73:AA:1B:60:10:9E:0C:BC:16:BB:A4:0A:58:0D:B6:28:0E:04

            Authority Information Access: 
                CA Issuers - URI:foobar
                CA Issuers - URI:http://url-for-aia2/I2.foo

            X509v3 CRL Distribution Points: 

                Full Name:
                  URI:http://url-for-crl/I.crl

            X509v3 Key Usage: critical
                Digital Signature, Key Encipherment
            X509v3 Extended Key Usage: 
                TLS Web Server Authentication, TLS Web Client Authentication
    Signature Algorithm: sha256WithRSAEncryption
         19:45:88:2b:f2:b7:12:b2:91:06:82:b5:05:26:20:4e:2f:ce:
         c1:32:b7:2d:6b:9c:ec:68:a0:6f:73:63:d8:dc:5c:68:ea:37:
         e6:a7:cf:df:1d:70:3d:88:29:3d:03:8b:fc:09:d9:c3:ef:53:
         35:4e:6e:8d:e1:8a:7c:cb:6d:1a:0e:64:69:bf:82:7f:b7:a5:
         09:dc:be:2a:4a:7e:e4:91:a5:1e:41:ce:e3:47:f6:20:81:c7:
         b0:b0:5c:9c:09:bf:e7:66:8d:a8:89:53:9a:aa:c1:21:f1:e9:
         a0:1a:e0:71:c7:d9:ff:8c:b9:f2:3f:eb:9d:68:43:1b:69:18:
         fe:d9:60:54:c3:08:7c:3b:64:e7:43:fd:11:05:22:50:9d:37:
         c4:1e:cf:f4:5c:6b:0c:e9:be:c0:41:0b:83:59:4c:37:29:7e:
         d5:41:04:6d:d4:4a:b7:13:d9:2a:d2:f6:05:4d:69:5e:08:3f:
         bc:04:e7:1f:0a:d2:94:7b:35:e2:64:43:e3:0b:d6:d1:73:de:
         57:7c:3f:a4:08:72:5b:cf:43:de:b0:3c:d8:72:34:df:6b:73:
         f3:e7:23:0e:a1:7e:e4:5c:ab:f2:66:54:d3:f3:e1:70:f5:ef:
         1e:04:89:11:51:6f:48:77:09:13:68:2c:5a:c7:7e:36:9f:0b:
         4b:ae:f5:f9
-----BEGIN CERTIFICATE-----
MIIDgjCCAmqgAwIBAgIBATANBgkqhkiG9w0BAQsFADAMMQowCAYDVQQDDAFJMB4X
DTE1MDEwMTEyMDAwMFoXDTE2MDEwMTEyMDAwMFowETEPMA0GA1UEAwwGdGFyZ2V0
MIIBIjANBgkqhkiG9w0BAQEFAAOCAQ8AMIIBCgKCAQEArl0YcdmB3A0pPwzO3D4A
aX7JWuRK+E1sPfN2D6tkN9/hWfnuHk9bX1oOpwAdYH7MNedeAKaiMxCvBxRGJkc6
As9/YOVZ2mSIHv+J8yeC26qeEqBac+rKrIvJA/xMdvUtttAFQngv3FpH5JJmDosF
8S372jt0JHTUm0AVoKKkAwskmeud4bmaDG5jlTe/yXpdpT+ESeDUROUXTUVfX4nY
KJgDHpyYlat+WSw7j4KSFNW06lIQ6MU9KVnehz7XbzZBqDTunOVT/bFgGCQFgdlT
+hJFPiMX0uJv1JpTrPi2Jm2ID7zy2fmnvNMjuN4CQhum4JPCXs4lpEubnd7JKbFz
awIDAQABo4HpMIHmMB0GA1UdDgQWBBRwMAkMgbATr9WfN8f08rcCNc1qSTAfBgNV
HSMEGDAWgBRdtHOqG2AQngy8FrukClgNtigOBDBKBggrBgEFBQcBAQQ+MDwwEgYI
KwYBBQUHMAKGBmZvb2JhcjAmBggrBgEFBQcwAoYaaHR0cDovL3VybC1mb3ItYWlh
Mi9JMi5mb28wKQYDVR0fBCIwIDAeoBygGoYYaHR0cDovL3VybC1mb3ItY3JsL0ku
Y3JsMA4GA1UdDwEB/wQEAwIFoDAdBgNVHSUEFjAUBggrBgEFBQcDAQYIKwYBBQUH
AwIwDQYJKoZIhvcNAQELBQADggEBABlFiCvytxKykQaCtQUmIE4vzsEyty1rnOxo
oG9zY9jcXGjqN+anz98dcD2IKT0Di/wJ2cPvUzVObo3hinzLbRoOZGm/gn+3pQnc
vipKfuSRpR5BzuNH9iCBx7CwXJwJv+dmjaiJU5qqwSHx6aAa4HHH2f+MufI/651o
QxtpGP7ZYFTDCHw7ZOdD/REFIlCdN8Qez/RcawzpvsBBC4NZTDcpftVBBG3USrcT
2SrS9gVNaV4IP7wE5x8K0pR7NeJkQ+ML1tFz3ld8P6QIclvPQ96wPNhyNN9rc/Pn
Iw6hfuRcq/JmVNPz4XD17x4EiRFRb0h3CRNoLFrHfjafC0uu9fk=
-----END CERTIFICATE-----
