Certificate:
    Data:
        Version: 3 (0x2)
        Serial Number: 1 (0x1)
    Signature Algorithm: sha256WithRSAEncryption
        Issuer: CN=I
        Validity
            Not Before: Jan  1 12:00:00 2015 GMT
            Not After : Jan  1 12:00:00 2016 GMT
        Subject: CN=target
        Subject Public Key Info:
            Public Key Algorithm: rsaEncryption
                Public-Key: (2048 bit)
                Modulus:
                    00:c2:66:b1:44:0d:14:14:8a:15:54:3e:12:20:94:
                    9d:a7:97:92:dd:20:67:f0:d5:e8:2d:a4:d6:9a:e8:
                    12:04:8c:cf:a3:94:3f:9b:e6:20:7d:c0:b5:9c:50:
                    f7:6f:8e:e4:a7:2a:de:ad:45:d0:87:e9:8a:05:68:
                    3a:3e:fc:16:0f:be:86:10:0a:5b:1d:7f:84:15:d9:
                    ec:d9:27:20:a4:d7:93:93:3d:15:54:da:29:6e:70:
                    d5:81:57:b7:50:4b:ea:83:9e:99:77:a7:bd:5d:44:
                    35:31:84:51:e1:29:2c:6f:14:56:b9:4a:7d:4f:92:
                    3a:90:60:77:0a:20:30:e6:5c:0b:f8:d9:f4:3b:ed:
                    d9:64:ec:07:7f:15:5e:e5:67:43:d0:1e:06:25:a0:
                    2c:fb:89:17:61:e8:aa:99:28:3a:97:ec:37:d9:32:
                    f0:a4:4e:ab:b4:d9:03:c9:33:5a:5f:7b:a7:a0:0c:
                    14:b7:34:f9:2b:59:39:29:15:48:0f:c7:47:90:ff:
                    9f:dc:fc:b7:30:35:0b:59:28:82:20:d7:9d:f0:50:
                    fc:2a:2c:9b:b7:84:28:7a:74:b5:c4:14:44:ed:09:
                    bd:df:51:e1:ab:b0:e0:c0:47:6c:e9:ed:48:df:ec:
                    74:6a:b2:bb:ec:45:ea:38:f9:05:c7:f1:c7:5e:ac:
                    a7:2b
                Exponent: 65537 (0x10001)
        X509v3 extensions:
            X509v3 Subject Key Identifier: 
                F1:C8:46:B7:E9:34:24:E7:C2:B4:CE:06:55:77:26:63:34:BF:0E:7F
            X509v3 Authority Key Identifier: 
                keyid:5D:B4:73:AA:1B:60:10:9E:0C:BC:16:BB:A4:0A:58:0D:B6:28:0E:04

            Authority Information Access: 
                CA Issuers - URI:foobar

            X509v3 CRL Distribution Points: 

                Full Name:
                  URI:http://url-for-crl/I.crl

            X509v3 Key Usage: critical
                Digital Signature, Key Encipherment
            X509v3 Extended Key Usage: 
                TLS Web Server Authentication, TLS Web Client Authentication
    Signature Algorithm: sha256WithRSAEncryption
         6f:88:e2:5c:97:3f:d9:76:6e:2b:65:fb:84:21:30:e8:3c:a2:
         6e:eb:a4:2b:42:e2:27:b3:2f:86:2f:b2:38:aa:de:74:b2:92:
         ff:d8:0d:6d:ec:9e:44:95:cb:95:1a:1e:2e:6f:6a:74:2b:81:
         5a:13:5f:c2:21:3a:24:e6:c4:07:01:f4:f1:5c:c6:39:aa:8f:
         2a:5f:f3:59:6f:74:de:19:06:da:0d:8d:ba:9c:6c:b8:75:97:
         9c:dc:c8:06:33:88:fd:c4:30:4b:02:ea:2a:6c:b2:03:47:a7:
         fb:e9:8f:0b:2d:3d:98:26:6a:8d:14:7a:5d:4d:d6:4e:ad:8f:
         1e:0d:9a:14:2f:81:5b:e6:f4:39:6a:df:a0:e0:35:ab:09:05:
         41:30:31:aa:51:5b:26:5c:82:27:2e:5e:08:c4:97:65:1e:51:
         ad:db:7c:26:34:79:d3:ce:90:93:4e:f4:69:6d:27:ad:26:be:
         77:5e:3b:c6:7c:7d:5d:62:e4:91:83:cf:c1:bd:4a:27:ee:b1:
         67:1a:75:8f:cb:ac:4f:0d:da:92:98:c9:d5:73:9a:1d:10:6c:
         1f:03:1a:0a:46:db:d5:bd:0a:f0:12:f7:39:06:44:16:27:81:
         1b:4e:5f:45:a0:d6:8e:8a:d3:e9:63:b9:01:8a:57:ae:50:7d:
         26:bb:1e:e6
-----BEGIN CERTIFICATE-----
MIIDWjCCAkKgAwIBAgIBATANBgkqhkiG9w0BAQsFADAMMQowCAYDVQQDDAFJMB4X
DTE1MDEwMTEyMDAwMFoXDTE2MDEwMTEyMDAwMFowETEPMA0GA1UEAwwGdGFyZ2V0
MIIBIjANBgkqhkiG9w0BAQEFAAOCAQ8AMIIBCgKCAQEAwmaxRA0UFIoVVD4SIJSd
p5eS3SBn8NXoLaTWmugSBIzPo5Q/m+YgfcC1nFD3b47kpyrerUXQh+mKBWg6PvwW
D76GEApbHX+EFdns2ScgpNeTkz0VVNopbnDVgVe3UEvqg56Zd6e9XUQ1MYRR4Sks
bxRWuUp9T5I6kGB3CiAw5lwL+Nn0O+3ZZOwHfxVe5WdD0B4GJaAs+4kXYeiqmSg6
l+w32TLwpE6rtNkDyTNaX3unoAwUtzT5K1k5KRVID8dHkP+f3Py3MDULWSiCINed
8FD8Kiybt4QoenS1xBRE7Qm931Hhq7DgwEds6e1I3+x0arK77EXqOPkFx/HHXqyn
KwIDAQABo4HBMIG+MB0GA1UdDgQWBBTxyEa36TQk58K0zgZVdyZjNL8OfzAfBgNV
HSMEGDAWgBRdtHOqG2AQngy8FrukClgNtigOBDAiBggrBgEFBQcBAQQWMBQwEgYI
KwYBBQUHMAKGBmZvb2JhcjApBgNVHR8EIjAgMB6gHKAahhhodHRwOi8vdXJsLWZv
ci1jcmwvSS5jcmwwDgYDVR0PAQH/BAQDAgWgMB0GA1UdJQQWMBQGCCsGAQUFBwMB
BggrBgEFBQcDAjANBgkqhkiG9w0BAQsFAAOCAQEAb4jiXJc/2XZuK2X7hCEw6Dyi
buukK0LiJ7Mvhi+yOKredLKS/9gNbeyeRJXLlRoeLm9qdCuBWhNfwiE6JObEBwH0
8VzGOaqPKl/zWW903hkG2g2NupxsuHWXnNzIBjOI/cQwSwLqKmyyA0en++mPCy09
mCZqjRR6XU3WTq2PHg2aFC+BW+b0OWrfoOA1qwkFQTAxqlFbJlyCJy5eCMSXZR5R
rdt8JjR5086Qk070aW0nrSa+d147xnx9XWLkkYPPwb1KJ+6xZxp1j8usTw3akpjJ
1XOaHRBsHwMaCkbb1b0K8BL3OQZEFieBG05fRaDWjorT6WO5AYpXrlB9Jrse5g==
-----END CERTIFICATE-----
