Certificate:
    Data:
        Version: 3 (0x2)
        Serial Number: 1 (0x1)
    Signature Algorithm: sha256WithRSAEncryption
        Issuer: CN=I
        Validity
            Not Before: Jan  1 12:00:00 2015 GMT
            Not After : Jan  1 12:00:00 2016 GMT
        Subject: CN=target
        Subject Public Key Info:
            Public Key Algorithm: rsaEncryption
                Public-Key: (2048 bit)
                Modulus:
                    00:a0:40:29:2b:38:18:9a:53:e0:e0:e3:14:e4:30:
                    cf:f9:85:6b:f9:3a:17:c2:f9:22:f8:64:bf:b0:de:
                    85:6d:37:dd:38:9a:93:d9:cb:c6:92:8a:6e:c4:2c:
                    10:2d:cb:3d:98:d2:e8:09:59:e4:28:b3:fe:c9:75:
                    46:f7:a7:ab:de:26:d9:47:73:08:bc:91:ce:5c:5c:
                    4f:43:f1:33:53:5d:2c:3b:f3:f4:69:e7:46:d8:b5:
                    77:75:94:d3:1b:f0:8f:5e:fc:7d:ca:2a:91:f8:81:
                    c2:71:b8:b9:86:09:3f:bd:e4:fb:9c:d7:26:65:76:
                    b8:e6:9b:6e:b6:72:fc:75:e8:df:55:30:24:81:24:
                    3d:a5:80:50:bc:76:15:29:82:89:34:58:0b:61:57:
                    48:fd:d3:4f:3e:ad:29:c7:bc:91:ce:f7:27:7e:9a:
                    f0:82:91:9f:7c:ce:58:4e:bf:03:fb:69:2c:2e:f4:
                    e6:a3:a4:b7:10:62:c3:c0:28:cc:ff:dc:a1:16:49:
                    c0:f5:70:da:93:09:c9:65:a7:e1:10:02:ac:c3:40:
                    5c:84:d7:db:7b:f4:5f:03:6b:4e:d3:18:10:ba:11:
                    a5:dd:1f:82:85:24:5e:bd:32:a4:08:4a:9c:fd:c4:
                    93:e7:86:ad:5b:f6:0a:21:60:cc:22:8a:13:a4:77:
                    44:63
                Exponent: 65537 (0x10001)
        X509v3 extensions:
            X509v3 Subject Key Identifier: 
                85:6F:DA:CE:E5:28:2A:3C:AB:88:56:08:C8:5A:83:B5:B8:7A:31:27
            X509v3 Authority Key Identifier: 
                keyid:5D:B4:73:AA:1B:60:10:9E:0C:BC:16:BB:A4:0A:58:0D:B6:28:0E:04

            Authority Information Access: 
                CA Issuers - URI:http://url-for-aia/I.cer
                CA Issuers - URI:http://url-for-aia2/I2.foo
                CA Issuers - URI:http://url-for-aia3/I3.foo

            X509v3 CRL Distribution Points: 

                Full Name:
                  URI:http://url-for-crl/I.crl

            X509v3 Key Usage: critical
                Digital Signature, Key Encipherment
            X509v3 Extended Key Usage: 
                TLS Web Server Authentication, TLS Web Client Authentication
    Signature Algorithm: sha256WithRSAEncryption
         4b:56:98:06:5c:27:81:3c:dd:e6:29:6f:99:f6:98:90:bb:d4:
         8b:fd:48:d5:3a:fb:41:d5:8b:38:b8:ff:47:3d:ca:ee:e2:a4:
         c5:42:59:5c:d2:c2:07:f2:21:f9:d7:3f:91:a5:ab:16:5b:ec:
         da:6f:db:7b:0d:ea:58:e1:9b:f8:d7:4a:bf:da:e2:18:c7:3f:
         a0:e0:0b:c1:43:b9:d7:b9:b5:d6:9d:12:4b:ce:e5:8e:7f:f1:
         ce:cd:a2:11:63:65:9b:59:28:fe:7d:b9:bf:9a:1b:a9:b5:16:
         ce:da:bd:ff:cc:b5:c9:1a:4b:35:f4:d3:68:44:de:96:4c:32:
         8c:91:e6:72:b0:0c:93:05:a7:79:af:4f:ae:dd:e7:29:00:85:
         a1:7b:89:88:1e:55:e0:0b:92:37:8b:a7:11:2a:9d:24:22:37:
         ce:bd:d9:34:6b:15:eb:fa:7c:e7:40:b0:f1:df:ee:3a:84:75:
         95:b1:2d:35:8a:79:c5:5a:72:23:79:95:c4:05:b1:8f:9c:86:
         34:5b:a7:c5:7b:3b:62:90:11:82:05:9a:1f:96:de:48:1a:e1:
         d5:29:4a:b1:2b:3c:84:0a:21:a6:8a:84:b8:23:ab:a2:ad:77:
         1f:a6:7e:07:ba:46:0c:62:12:cb:ac:99:33:84:b9:5c:c9:0d:
         d7:45:bc:d4
-----BEGIN CERTIFICATE-----
MIIDvzCCAqegAwIBAgIBATANBgkqhkiG9w0BAQsFADAMMQowCAYDVQQDDAFJMB4X
DTE1MDEwMTEyMDAwMFoXDTE2MDEwMTEyMDAwMFowETEPMA0GA1UEAwwGdGFyZ2V0
MIIBIjANBgkqhkiG9w0BAQEFAAOCAQ8AMIIBCgKCAQEAoEApKzgYmlPg4OMU5DDP
+YVr+ToXwvki+GS/sN6FbTfdOJqT2cvGkopuxCwQLcs9mNLoCVnkKLP+yXVG96er
3ibZR3MIvJHOXFxPQ/EzU10sO/P0aedG2LV3dZTTG/CPXvx9yiqR+IHCcbi5hgk/
veT7nNcmZXa45ptutnL8dejfVTAkgSQ9pYBQvHYVKYKJNFgLYVdI/dNPPq0px7yR
zvcnfprwgpGffM5YTr8D+2ksLvTmo6S3EGLDwCjM/9yhFknA9XDakwnJZafhEAKs
w0BchNfbe/RfA2tO0xgQuhGl3R+ChSRevTKkCEqc/cST54atW/YKIWDMIooTpHdE
YwIDAQABo4IBJTCCASEwHQYDVR0OBBYEFIVv2s7lKCo8q4hWCMhag7W4ejEnMB8G
A1UdIwQYMBaAFF20c6obYBCeDLwWu6QKWA22KA4EMIGEBggrBgEFBQcBAQR4MHYw
JAYIKwYBBQUHMAKGGGh0dHA6Ly91cmwtZm9yLWFpYS9JLmNlcjAmBggrBgEFBQcw
AoYaaHR0cDovL3VybC1mb3ItYWlhMi9JMi5mb28wJgYIKwYBBQUHMAKGGmh0dHA6
Ly91cmwtZm9yLWFpYTMvSTMuZm9vMCkGA1UdHwQiMCAwHqAcoBqGGGh0dHA6Ly91
cmwtZm9yLWNybC9JLmNybDAOBgNVHQ8BAf8EBAMCBaAwHQYDVR0lBBYwFAYIKwYB
BQUHAwEGCCsGAQUFBwMCMA0GCSqGSIb3DQEBCwUAA4IBAQBLVpgGXCeBPN3mKW+Z
9piQu9SL/UjVOvtB1Ys4uP9HPcru4qTFQllc0sIH8iH51z+RpasWW+zab9t7DepY
4Zv410q/2uIYxz+g4AvBQ7nXubXWnRJLzuWOf/HOzaIRY2WbWSj+fbm/mhuptRbO
2r3/zLXJGks19NNoRN6WTDKMkeZysAyTBad5r0+u3ecpAIWhe4mIHlXgC5I3i6cR
Kp0kIjfOvdk0axXr+nznQLDx3+46hHWVsS01innFWnIjeZXEBbGPnIY0W6fFezti
kBGCBZoflt5IGuHVKUqxKzyECiGmioS4I6uirXcfpn4HukYMYhLLrJkzhLlcyQ3X
RbzU
-----END CERTIFICATE-----
