[Created by: generate-basic-constraints-pathlen-0-self-issued.py]

Certificate chain with 2 intermediaries. The first intermediary has a basic
constraints path length of 0. The second one is self-issued so does not count
against the path length.

Certificate:
    Data:
        Version: 3 (0x2)
        Serial Number: 1 (0x1)
    Signature Algorithm: sha256WithRSAEncryption
        Issuer: CN=Intermediary
        Validity
            Not Before: Jan  1 12:00:00 2015 GMT
            Not After : Jan  1 12:00:00 2016 GMT
        Subject: CN=Target
        Subject Public Key Info:
            Public Key Algorithm: rsaEncryption
                Public-Key: (2048 bit)
                Modulus:
                    00:cc:d5:1f:2f:97:16:d6:23:ca:d5:a1:c1:97:42:
                    2b:7e:3e:7f:45:44:70:b9:8d:81:76:be:b4:69:56:
                    78:a9:14:10:69:ad:60:8e:ed:80:b2:a2:f9:85:d6:
                    fe:4c:81:d0:30:8e:c8:75:48:29:48:b9:ad:9f:a9:
                    83:b6:4f:c7:ba:40:f9:d5:66:9f:f9:51:48:72:0d:
                    95:38:65:da:41:8a:91:4a:e1:34:d6:1c:a0:0b:ee:
                    4d:07:69:0c:74:87:58:79:1b:e5:7b:51:ae:19:36:
                    b2:6a:a6:89:81:30:bd:51:c1:7f:99:86:63:78:48:
                    a6:8e:74:f6:5f:cc:fb:3f:12:ac:2e:e7:a8:75:15:
                    b7:5b:37:dd:ce:54:68:ae:0d:ad:80:13:b5:d7:06:
                    98:39:a9:67:f9:fb:c1:7f:e0:f6:6b:14:f3:d3:b4:
                    f4:33:2c:41:9e:69:63:de:b3:f9:cd:4e:f8:58:98:
                    dd:6f:9b:9a:b7:82:19:c1:01:c9:2d:fb:d3:5a:48:
                    5f:e4:e5:c5:6e:5f:b1:3b:31:49:65:f0:0d:46:a5:
                    33:fb:57:23:fc:ca:17:51:72:fc:5a:f7:7c:44:74:
                    24:3b:cc:54:2c:e3:d4:8b:e9:9c:13:da:78:58:a1:
                    d8:00:19:30:ee:3d:29:fb:2b:7a:79:b8:69:f2:3b:
                    d3:19
                Exponent: 65537 (0x10001)
        X509v3 extensions:
            X509v3 Subject Key Identifier: 
                6D:49:C7:0A:DE:44:7C:B7:07:ED:87:EF:41:DE:5D:12:91:28:3D:1C
            X509v3 Authority Key Identifier: 
                keyid:31:9F:A3:DB:EA:90:94:EB:3D:93:39:9F:BA:8A:05:7E:2C:94:23:9B

            Authority Information Access: 
                CA Issuers - URI:http://url-for-aia/Intermediary.cer

            X509v3 CRL Distribution Points: 

                Full Name:
                  URI:http://url-for-crl/Intermediary.crl

            X509v3 Key Usage: critical
                Digital Signature, Key Encipherment
            X509v3 Extended Key Usage: 
                TLS Web Server Authentication, TLS Web Client Authentication
    Signature Algorithm: sha256WithRSAEncryption
         34:51:df:38:e9:c2:df:c6:2c:01:00:7e:a1:4b:5e:d1:43:8a:
         d7:4e:ff:49:5d:17:e7:bd:e2:3c:cd:43:63:4d:a9:05:97:bf:
         76:e2:8d:90:d2:dd:ea:6b:4c:e3:1e:c1:7b:8b:35:5a:24:cc:
         d8:b2:9a:12:07:d2:66:fa:fd:3c:79:b4:a7:d7:cb:69:af:07:
         f7:9d:66:34:ee:ed:22:1f:7d:58:9e:e1:49:90:88:95:1e:27:
         2a:3d:dc:a9:b9:1d:2b:1f:88:b9:0c:89:a1:bc:dd:25:97:b9:
         32:0e:02:86:fa:a3:2c:cd:8e:29:e5:68:12:3b:5b:bf:0e:cc:
         25:ad:06:ef:77:26:d7:b4:84:cf:ba:00:55:c4:f0:95:39:88:
         ff:22:f8:a5:89:8a:d2:31:aa:e7:98:76:02:19:bd:04:bc:5c:
         26:be:5e:eb:96:2b:f6:a2:cf:13:3e:a1:82:92:63:c0:13:bc:
         b6:f9:06:fb:77:c3:0f:cd:39:b1:af:43:b5:9d:fc:64:d4:bd:
         d0:81:5c:06:fb:8b:0e:c5:59:0b:07:d6:a7:8b:a9:8e:b3:6b:
         f5:ed:9b:ea:ea:f7:6f:ea:2b:02:df:62:92:ae:98:fb:45:ca:
         bc:1c:6b:eb:6d:33:e3:0e:32:0f:0d:e3:7f:5c:ef:e3:1b:c2:
         f6:fc:99:a4
-----BEGIN CERTIFICATE-----
MIIDjTCCAnWgAwIBAgIBATANBgkqhkiG9w0BAQsFADAXMRUwEwYDVQQDDAxJbnRl
cm1lZGlhcnkwHhcNMTUwMTAxMTIwMDAwWhcNMTYwMTAxMTIwMDAwWjARMQ8wDQYD
VQQDDAZUYXJnZXQwggEiMA0GCSqGSIb3DQEBAQUAA4IBDwAwggEKAoIBAQDM1R8v
lxbWI8rVocGXQit+Pn9FRHC5jYF2vrRpVnipFBBprWCO7YCyovmF1v5MgdAwjsh1
SClIua2fqYO2T8e6QPnVZp/5UUhyDZU4ZdpBipFK4TTWHKAL7k0HaQx0h1h5G+V7
Ua4ZNrJqpomBML1RwX+ZhmN4SKaOdPZfzPs/Eqwu56h1FbdbN93OVGiuDa2AE7XX
Bpg5qWf5+8F/4PZrFPPTtPQzLEGeaWPes/nNTvhYmN1vm5q3ghnBAckt+9NaSF/k
5cVuX7E7MUll8A1GpTP7VyP8yhdRcvxa93xEdCQ7zFQs49SL6ZwT2nhYodgAGTDu
PSn7K3p5uGnyO9MZAgMBAAGjgekwgeYwHQYDVR0OBBYEFG1JxwreRHy3B+2H70He
XRKRKD0cMB8GA1UdIwQYMBaAFDGfo9vqkJTrPZM5n7qKBX4slCObMD8GCCsGAQUF
BwEBBDMwMTAvBggrBgEFBQcwAoYjaHR0cDovL3VybC1mb3ItYWlhL0ludGVybWVk
aWFyeS5jZXIwNAYDVR0fBC0wKzApoCegJYYjaHR0cDovL3VybC1mb3ItY3JsL0lu
dGVybWVkaWFyeS5jcmwwDgYDVR0PAQH/BAQDAgWgMB0GA1UdJQQWMBQGCCsGAQUF
BwMBBggrBgEFBQcDAjANBgkqhkiG9w0BAQsFAAOCAQEANFHfOOnC38YsAQB+oUte
0UOK107/SV0X573iPM1DY02pBZe/duKNkNLd6mtM4x7Be4s1WiTM2LKaEgfSZvr9
PHm0p9fLaa8H951mNO7tIh99WJ7hSZCIlR4nKj3cqbkdKx+IuQyJobzdJZe5Mg4C
hvqjLM2OKeVoEjtbvw7MJa0G73cm17SEz7oAVcTwlTmI/yL4pYmK0jGq55h2Ahm9
BLxcJr5e65Yr9qLPEz6hgpJjwBO8tvkG+3fDD805sa9DtZ38ZNS90IFcBvuLDsVZ
CwfWp4upjrNr9e2b6ur3b+orAt9ikq6Y+0XKvBxr620z4w4yDw3jf1zv4xvC9vyZ
pA==
-----END CERTIFICATE-----

Certificate:
    Data:
        Version: 3 (0x2)
        Serial Number: 1 (0x1)
    Signature Algorithm: sha256WithRSAEncryption
        Issuer: CN=Intermediary
        Validity
            Not Before: Jan  1 12:00:00 2015 GMT
            Not After : Jan  1 12:00:00 2016 GMT
        Subject: CN=Intermediary
        Subject Public Key Info:
            Public Key Algorithm: rsaEncryption
                Public-Key: (2048 bit)
                Modulus:
                    00:e6:56:91:e6:27:53:a1:d7:64:56:d8:c8:57:b7:
                    55:7c:89:a2:b4:9d:ab:72:f0:bc:03:35:16:53:77:
                    7e:ef:bf:0b:f5:91:d5:de:ae:bb:ae:ae:3a:53:00:
                    ec:80:3b:a0:2b:d3:6a:ae:0c:d0:4c:a1:24:b2:b4:
                    77:de:ad:81:0f:70:f8:f4:dc:f8:c7:6e:f8:54:29:
                    84:3a:b8:83:f4:95:22:80:ae:71:b0:dd:4e:ba:82:
                    87:80:d1:c7:f3:ad:a7:45:c5:db:47:3c:8e:84:31:
                    bc:c6:bd:29:77:70:39:78:f4:3b:5e:ae:8f:d9:44:
                    6b:1a:1d:cb:f9:7b:84:14:7c:5b:b8:82:3c:ed:47:
                    16:c6:4e:2b:75:5a:1b:b4:5d:0c:0a:2f:55:b6:48:
                    87:a1:25:a2:a9:5b:e4:a8:f9:bc:70:24:92:07:7f:
                    5b:94:83:3b:44:78:65:cb:62:0c:30:fa:cf:f1:f7:
                    20:9e:76:c8:52:78:8b:f8:30:62:f0:66:28:8a:7f:
                    ba:74:12:f8:05:ef:29:d8:17:cb:8a:95:61:fc:af:
                    58:d2:e2:86:d7:8c:fb:3b:56:28:8d:e4:d9:27:48:
                    b6:c1:fc:9a:4e:d4:24:b8:68:c3:32:5d:65:30:6e:
                    a3:9e:b9:bf:6e:a7:3b:b4:3d:2e:5d:13:a1:28:4e:
                    a4:0d
                Exponent: 65537 (0x10001)
        X509v3 extensions:
            X509v3 Subject Key Identifier: 
                31:9F:A3:DB:EA:90:94:EB:3D:93:39:9F:BA:8A:05:7E:2C:94:23:9B
            X509v3 Authority Key Identifier: 
                keyid:73:4C:95:45:4C:3B:F6:7E:7B:92:30:C9:AC:30:51:E7:7D:21:D2:BF

            Authority Information Access: 
                CA Issuers - URI:http://url-for-aia/Intermediary.cer

            X509v3 CRL Distribution Points: 

                Full Name:
                  URI:http://url-for-crl/Intermediary.crl

            X509v3 Key Usage: critical
                Certificate Sign, CRL Sign
            X509v3 Basic Constraints: critical
                CA:TRUE, pathlen:0
    Signature Algorithm: sha256WithRSAEncryption
         0d:7d:a3:df:40:cd:02:79:b5:69:5d:c5:a7:eb:bc:87:95:c3:
         17:fc:73:dd:59:a8:c2:d3:67:71:15:09:7a:9b:f8:01:5d:a0:
         d2:a3:e5:37:1d:f5:f3:2c:fd:8d:8e:e7:6c:ca:01:2a:83:a8:
         00:c9:65:26:8e:ab:0b:13:91:9c:00:9a:a3:60:44:8c:82:0f:
         04:1e:74:b1:c6:4f:a6:da:37:70:16:35:03:92:f2:04:ab:c8:
         21:97:a8:b4:e3:bf:bf:67:9e:ce:c3:24:df:6a:cc:43:d6:ea:
         59:89:b7:3e:1c:de:ed:ab:99:ec:26:60:3b:b7:84:4b:e0:1a:
         b7:be:6d:20:7b:f4:88:a2:bf:95:3f:6e:7a:fa:ea:e1:55:72:
         88:ae:67:b3:13:1a:3a:1f:07:16:1d:84:fd:e5:e3:1e:90:ec:
         dc:d2:ce:73:c0:50:19:69:10:dc:c7:db:91:46:f4:50:52:87:
         94:6e:ce:ef:a6:20:57:d2:ad:36:95:1e:94:7f:a3:8f:d9:0d:
         99:dd:8f:e3:2a:b2:2b:69:a0:f7:26:4e:cd:f2:f1:cf:05:14:
         31:3d:aa:71:01:dd:42:24:19:62:5c:00:1b:98:ac:7d:45:f2:
         e6:14:dd:2e:10:06:74:39:61:6d:b9:3c:68:c1:e7:3d:b6:3d:
         e1:75:c9:fd
-----BEGIN CERTIFICATE-----
MIIDiDCCAnCgAwIBAgIBATANBgkqhkiG9w0BAQsFADAXMRUwEwYDVQQDDAxJbnRl
cm1lZGlhcnkwHhcNMTUwMTAxMTIwMDAwWhcNMTYwMTAxMTIwMDAwWjAXMRUwEwYD
VQQDDAxJbnRlcm1lZGlhcnkwggEiMA0GCSqGSIb3DQEBAQUAA4IBDwAwggEKAoIB
AQDmVpHmJ1Oh12RW2MhXt1V8iaK0naty8LwDNRZTd37vvwv1kdXerruurjpTAOyA
O6Ar02quDNBMoSSytHferYEPcPj03PjHbvhUKYQ6uIP0lSKArnGw3U66goeA0cfz
radFxdtHPI6EMbzGvSl3cDl49Dtero/ZRGsaHcv5e4QUfFu4gjztRxbGTit1Whu0
XQwKL1W2SIehJaKpW+So+bxwJJIHf1uUgztEeGXLYgww+s/x9yCedshSeIv4MGLw
ZiiKf7p0EvgF7ynYF8uKlWH8r1jS4obXjPs7ViiN5NknSLbB/JpO1CS4aMMyXWUw
bqOeub9upzu0PS5dE6EoTqQNAgMBAAGjgd4wgdswHQYDVR0OBBYEFDGfo9vqkJTr
PZM5n7qKBX4slCObMB8GA1UdIwQYMBaAFHNMlUVMO/Z+e5IwyawwUed9IdK/MD8G
CCsGAQUFBwEBBDMwMTAvBggrBgEFBQcwAoYjaHR0cDovL3VybC1mb3ItYWlhL0lu
dGVybWVkaWFyeS5jZXIwNAYDVR0fBC0wKzApoCegJYYjaHR0cDovL3VybC1mb3It
Y3JsL0ludGVybWVkaWFyeS5jcmwwDgYDVR0PAQH/BAQDAgEGMBIGA1UdEwEB/wQI
MAYBAf8CAQAwDQYJKoZIhvcNAQELBQADggEBAA19o99AzQJ5tWldxafrvIeVwxf8
c91ZqMLTZ3EVCXqb+AFdoNKj5Tcd9fMs/Y2O52zKASqDqADJZSaOqwsTkZwAmqNg
RIyCDwQedLHGT6baN3AWNQOS8gSryCGXqLTjv79nns7DJN9qzEPW6lmJtz4c3u2r
mewmYDu3hEvgGre+bSB79Iiiv5U/bnr66uFVcoiuZ7MTGjofBxYdhP3l4x6Q7NzS
znPAUBlpENzH25FG9FBSh5Ruzu+mIFfSrTaVHpR/o4/ZDZndj+MqsitpoPcmTs3y
8c8FFDE9qnEB3UIkGWJcABuYrH1F8uYU3S4QBnQ5YW25PGjB5z22PeF1yf0=
-----END CERTIFICATE-----

Certificate:
    Data:
        Version: 3 (0x2)
        Serial Number: 2 (0x2)
    Signature Algorithm: sha256WithRSAEncryption
        Issuer: CN=Root
        Validity
            Not Before: Jan  1 12:00:00 2015 GMT
            Not After : Jan  1 12:00:00 2016 GMT
        Subject: CN=Intermediary
        Subject Public Key Info:
            Public Key Algorithm: rsaEncryption
                Public-Key: (2048 bit)
                Modulus:
                    00:c9:30:53:c1:b9:0f:27:7a:39:3d:39:c4:a3:7c:
                    96:bb:0e:e4:d9:fd:10:76:98:36:62:fc:33:7c:02:
                    47:6c:6f:2e:d2:61:aa:d5:e3:86:67:a2:ef:93:a3:
                    fd:15:83:1c:27:90:f3:81:4a:41:f2:e6:e6:be:26:
                    9a:b0:77:1d:e5:8a:97:2d:a7:87:6b:80:49:26:0e:
                    da:48:36:ba:eb:71:6a:cb:b4:82:66:42:fd:58:5f:
                    bc:c9:18:30:ee:2f:0c:28:81:e7:36:b9:76:da:55:
                    8c:7a:cf:a9:1f:04:c6:6e:42:ea:d3:83:c6:8d:04:
                    26:9e:11:8a:c6:cd:25:c7:4a:58:d1:98:86:b5:37:
                    9c:3e:68:2e:17:4d:81:85:f3:d4:7d:65:e7:0f:86:
                    8a:c9:d0:2d:fc:4f:c7:40:2a:ef:48:ab:2e:4c:2e:
                    b6:1c:81:4e:73:73:e9:cc:d4:ef:94:b1:17:2c:70:
                    64:b0:4c:ad:87:cf:45:13:c2:67:46:d1:c6:b3:61:
                    8d:77:af:4f:1c:b6:4f:b6:d9:2b:3c:4c:5f:72:23:
                    77:c7:85:65:1d:85:48:28:06:34:b4:f0:bd:a9:76:
                    7a:65:60:59:d6:f6:26:f6:85:99:7b:84:16:5e:91:
                    8d:f9:90:b8:75:d3:4a:77:6a:1f:f8:ed:66:67:22:
                    64:4b
                Exponent: 65537 (0x10001)
        X509v3 extensions:
            X509v3 Subject Key Identifier: 
                73:4C:95:45:4C:3B:F6:7E:7B:92:30:C9:AC:30:51:E7:7D:21:D2:BF
            X509v3 Authority Key Identifier: 
                keyid:DE:10:87:7A:48:75:9E:50:89:F1:AE:40:E0:BF:BA:5F:D8:63:77:9B

            Authority Information Access: 
                CA Issuers - URI:http://url-for-aia/Root.cer

            X509v3 CRL Distribution Points: 

                Full Name:
                  URI:http://url-for-crl/Root.crl

            X509v3 Key Usage: critical
                Certificate Sign, CRL Sign
            X509v3 Basic Constraints: critical
                CA:TRUE, pathlen:0
    Signature Algorithm: sha256WithRSAEncryption
         3f:40:c5:c8:06:d9:35:27:63:63:e7:9c:08:1d:ee:ef:e3:b6:
         11:a7:a2:4f:b0:bf:8b:14:2f:16:6f:47:f5:0b:d8:3d:98:7a:
         03:7d:30:0c:85:11:80:a6:ff:fc:99:dd:a0:31:d6:fb:bf:4f:
         09:49:64:ca:8a:34:3d:56:c3:72:b0:08:e2:b8:12:95:1e:70:
         4f:3f:5b:1e:70:6f:06:f0:78:77:90:3b:d1:54:83:f2:b1:8e:
         7e:25:d3:f7:21:66:8b:a9:c4:f7:f6:bb:a9:7a:3b:e0:99:4c:
         94:b7:45:3a:fe:61:74:0a:70:de:a0:d6:c1:c4:dd:59:0e:cc:
         81:d1:ad:da:99:1d:83:b3:e2:3a:7b:8f:5c:3a:25:52:3e:40:
         5a:96:00:71:e6:f3:5d:9c:6a:54:be:0f:24:8e:8b:3a:14:37:
         6a:72:0b:41:e6:06:d1:b2:3d:f9:a2:bb:d7:6e:f1:ac:70:08:
         62:e7:f2:82:df:fb:85:e4:99:b9:cf:84:9a:34:55:e5:e8:39:
         a9:e7:e3:79:54:07:c9:6b:1d:33:aa:30:d3:ea:7b:32:07:0f:
         23:34:10:fa:58:17:ad:e0:62:c8:ce:d6:0f:db:34:0c:a3:a9:
         f9:09:05:c6:25:d9:ce:e5:52:0a:5c:8a:f3:c9:44:72:45:71:
         6d:5c:fc:d1
-----BEGIN CERTIFICATE-----
MIIDcDCCAligAwIBAgIBAjANBgkqhkiG9w0BAQsFADAPMQ0wCwYDVQQDDARSb290
MB4XDTE1MDEwMTEyMDAwMFoXDTE2MDEwMTEyMDAwMFowFzEVMBMGA1UEAwwMSW50
ZXJtZWRpYXJ5MIIBIjANBgkqhkiG9w0BAQEFAAOCAQ8AMIIBCgKCAQEAyTBTwbkP
J3o5PTnEo3yWuw7k2f0Qdpg2YvwzfAJHbG8u0mGq1eOGZ6Lvk6P9FYMcJ5DzgUpB
8ubmviaasHcd5YqXLaeHa4BJJg7aSDa663Fqy7SCZkL9WF+8yRgw7i8MKIHnNrl2
2lWMes+pHwTGbkLq04PGjQQmnhGKxs0lx0pY0ZiGtTecPmguF02BhfPUfWXnD4aK
ydAt/E/HQCrvSKsuTC62HIFOc3PpzNTvlLEXLHBksEyth89FE8JnRtHGs2GNd69P
HLZPttkrPExfciN3x4VlHYVIKAY0tPC9qXZ6ZWBZ1vYm9oWZe4QWXpGN+ZC4ddNK
d2of+O1mZyJkSwIDAQABo4HOMIHLMB0GA1UdDgQWBBRzTJVFTDv2fnuSMMmsMFHn
fSHSvzAfBgNVHSMEGDAWgBTeEId6SHWeUInxrkDgv7pf2GN3mzA3BggrBgEFBQcB
AQQrMCkwJwYIKwYBBQUHMAKGG2h0dHA6Ly91cmwtZm9yLWFpYS9Sb290LmNlcjAs
BgNVHR8EJTAjMCGgH6AdhhtodHRwOi8vdXJsLWZvci1jcmwvUm9vdC5jcmwwDgYD
VR0PAQH/BAQDAgEGMBIGA1UdEwEB/wQIMAYBAf8CAQAwDQYJKoZIhvcNAQELBQAD
ggEBAD9AxcgG2TUnY2PnnAgd7u/jthGnok+wv4sULxZvR/UL2D2YegN9MAyFEYCm
//yZ3aAx1vu/TwlJZMqKND1Ww3KwCOK4EpUecE8/Wx5wbwbweHeQO9FUg/Kxjn4l
0/chZoupxPf2u6l6O+CZTJS3RTr+YXQKcN6g1sHE3VkOzIHRrdqZHYOz4jp7j1w6
JVI+QFqWAHHm812calS+DySOizoUN2pyC0HmBtGyPfmiu9du8axwCGLn8oLf+4Xk
mbnPhJo0VeXoOann43lUB8lrHTOqMNPqezIHDyM0EPpYF63gYsjO1g/bNAyjqfkJ
BcYl2c7lUgpcivPJRHJFcW1c/NE=
-----END CERTIFICATE-----

Certificate:
    Data:
        Version: 3 (0x2)
        Serial Number: 1 (0x1)
    Signature Algorithm: sha256WithRSAEncryption
        Issuer: CN=Root
        Validity
            Not Before: Jan  1 12:00:00 2015 GMT
            Not After : Jan  1 12:00:00 2016 GMT
        Subject: CN=Root
        Subject Public Key Info:
            Public Key Algorithm: rsaEncryption
                Public-Key: (2048 bit)
                Modulus:
                    00:a8:11:83:b7:cc:88:e9:4c:69:28:ad:6a:95:83:
                    6a:1c:28:52:d2:02:21:00:93:f0:82:8e:fc:b8:fb:
                    b9:44:e2:43:e9:fe:3f:7e:0c:01:a6:9f:12:fc:09:
                    fc:66:44:03:b4:66:78:3c:36:05:37:00:6e:87:54:
                    ff:61:95:ab:37:88:a0:6e:f7:8f:c2:ea:8d:e5:bf:
                    4c:21:21:1d:74:22:dd:93:52:b3:66:d7:97:33:b9:
                    cb:ab:8e:38:59:52:e7:f0:5c:09:50:ad:c9:e0:e1:
                    18:d7:cc:4a:d7:2b:41:cd:91:8c:a2:b0:25:d6:6c:
                    d2:7d:e8:fa:20:3f:c8:aa:15:b9:77:b6:da:ac:86:
                    f8:21:52:2e:f9:e7:b6:d5:65:fd:23:ba:2f:5b:1b:
                    c6:62:76:00:f1:74:4b:e2:d9:9a:d3:67:03:71:d4:
                    93:af:93:4d:4f:82:da:1c:ba:a5:a9:0f:25:6b:54:
                    dd:63:8c:3e:34:75:32:9e:c8:99:44:fd:f0:47:6d:
                    98:45:3c:75:b5:ac:0b:eb:d6:30:6a:a1:6c:67:14:
                    ee:62:72:93:fe:bc:4c:e8:10:a2:3c:66:33:1c:49:
                    e8:dc:2f:c9:a4:64:17:88:a0:1c:a4:b0:ff:9c:8f:
                    c4:c6:18:1d:0c:55:62:a9:3b:f6:bc:53:16:62:82:
                    49:c5
                Exponent: 65537 (0x10001)
        X509v3 extensions:
            X509v3 Subject Key Identifier: 
                DE:10:87:7A:48:75:9E:50:89:F1:AE:40:E0:BF:BA:5F:D8:63:77:9B
            X509v3 Authority Key Identifier: 
                keyid:DE:10:87:7A:48:75:9E:50:89:F1:AE:40:E0:BF:BA:5F:D8:63:77:9B

            Authority Information Access: 
                CA Issuers - URI:http://url-for-aia/Root.cer

            X509v3 CRL Distribution Points: 

                Full Name:
                  URI:http://url-for-crl/Root.crl

            X509v3 Key Usage: critical
                Certificate Sign, CRL Sign
            X509v3 Basic Constraints: critical
                CA:TRUE
    Signature Algorithm: sha256WithRSAEncryption
         27:c0:50:82:2b:1b:71:84:c6:12:ea:45:ed:21:b8:fd:7c:08:
         68:ec:de:4a:1b:98:3b:ce:e9:a1:9e:42:9a:e0:f4:e2:09:a6:
         5c:98:33:16:5b:65:6b:fc:b9:9b:26:90:e1:86:58:1f:0a:7e:
         7e:0d:7d:4e:0e:8b:93:04:b9:84:f0:e8:a3:7f:34:e2:ab:f5:
         d5:bb:46:b7:df:a0:3a:81:8c:56:48:02:95:8f:06:cb:f2:cd:
         2a:39:c6:12:5a:9d:62:e9:a9:49:55:4d:e9:17:c2:97:3d:81:
         12:76:d8:68:18:f6:7e:a6:c4:52:a9:85:4c:83:38:94:2b:df:
         dd:39:bb:cf:e1:9e:4e:e1:a0:eb:63:8a:c0:6e:99:01:65:78:
         b5:ca:ab:2a:90:86:c5:5e:53:62:57:89:14:c1:41:8f:e6:9a:
         60:97:e4:5c:5b:fa:28:9c:9f:e3:55:ed:42:36:b6:d0:8d:f3:
         0c:cf:6e:87:38:aa:98:91:a9:1f:48:2a:c7:27:49:04:d6:d6:
         f8:33:c9:d0:e2:b7:87:00:9a:1f:63:af:5b:ac:70:7e:96:9f:
         b0:3b:e5:a3:f8:04:b6:f8:2c:38:54:21:06:51:33:32:78:80:
         17:59:83:95:66:65:1d:b5:5b:f2:1b:3e:6d:9e:98:c2:09:f3:
         ec:52:20:5b
-----BEGIN TRUSTED_CERTIFICATE-----
MIIDZTCCAk2gAwIBAgIBATANBgkqhkiG9w0BAQsFADAPMQ0wCwYDVQQDDARSb290
MB4XDTE1MDEwMTEyMDAwMFoXDTE2MDEwMTEyMDAwMFowDzENMAsGA1UEAwwEUm9v
dDCCASIwDQYJKoZIhvcNAQEBBQADggEPADCCAQoCggEBAKgRg7fMiOlMaSitapWD
ahwoUtICIQCT8IKO/Lj7uUTiQ+n+P34MAaafEvwJ/GZEA7RmeDw2BTcAbodU/2GV
qzeIoG73j8LqjeW/TCEhHXQi3ZNSs2bXlzO5y6uOOFlS5/BcCVCtyeDhGNfMStcr
Qc2RjKKwJdZs0n3o+iA/yKoVuXe22qyG+CFSLvnnttVl/SO6L1sbxmJ2APF0S+LZ
mtNnA3HUk6+TTU+C2hy6pakPJWtU3WOMPjR1Mp7ImUT98EdtmEU8dbWsC+vWMGqh
bGcU7mJyk/68TOgQojxmMxxJ6NwvyaRkF4igHKSw/5yPxMYYHQxVYqk79rxTFmKC
ScUCAwEAAaOByzCByDAdBgNVHQ4EFgQU3hCHekh1nlCJ8a5A4L+6X9hjd5swHwYD
VR0jBBgwFoAU3hCHekh1nlCJ8a5A4L+6X9hjd5swNwYIKwYBBQUHAQEEKzApMCcG
CCsGAQUFBzAChhtodHRwOi8vdXJsLWZvci1haWEvUm9vdC5jZXIwLAYDVR0fBCUw
IzAhoB+gHYYbaHR0cDovL3VybC1mb3ItY3JsL1Jvb3QuY3JsMA4GA1UdDwEB/wQE
AwIBBjAPBgNVHRMBAf8EBTADAQH/MA0GCSqGSIb3DQEBCwUAA4IBAQAnwFCCKxtx
hMYS6kXtIbj9fAho7N5KG5g7zumhnkKa4PTiCaZcmDMWW2Vr/LmbJpDhhlgfCn5+
DX1ODouTBLmE8OijfzTiq/XVu0a336A6gYxWSAKVjwbL8s0qOcYSWp1i6alJVU3p
F8KXPYESdthoGPZ+psRSqYVMgziUK9/dObvP4Z5O4aDrY4rAbpkBZXi1yqsqkIbF
XlNiV4kUwUGP5ppgl+RcW/oonJ/jVe1CNrbQjfMMz26HOKqYkakfSCrHJ0kE1tb4
M8nQ4reHAJofY69brHB+lp+wO+Wj+AS2+Cw4VCEGUTMyeIAXWYOVZmUdtVvyGz5t
npjCCfPsUiBb
-----END TRUSTED_CERTIFICATE-----

-----BEGIN TIME-----
MTUwMzAyMTIwMDAwWg==
-----END TIME-----

-----BEGIN VERIFY_RESULT-----
U1VDQ0VTUw==
-----END VERIFY_RESULT-----
