[Created by: generate-target-and-intermediary.py]

Certificate chain with 1 intermediary and a trusted root. Verification is
expected to succeed.

Certificate:
    Data:
        Version: 3 (0x2)
        Serial Number: 1 (0x1)
    Signature Algorithm: sha256WithRSAEncryption
        Issuer: CN=Intermediary
        Validity
            Not Before: Jan  1 12:00:00 2015 GMT
            Not After : Jan  1 12:00:00 2016 GMT
        Subject: CN=Target
        Subject Public Key Info:
            Public Key Algorithm: rsaEncryption
                Public-Key: (2048 bit)
                Modulus:
                    00:dc:50:a0:d0:af:3b:b6:d5:af:48:be:31:08:db:
                    91:81:c5:c8:d7:22:88:d4:74:1e:12:de:7a:79:79:
                    10:71:de:b5:8a:4e:d1:1d:46:6b:46:62:e8:de:f8:
                    01:f5:9d:6b:35:f6:a6:b7:f2:7f:4c:5f:f9:ad:10:
                    f6:7e:9c:87:dc:27:e5:3f:19:1c:f0:c5:69:06:51:
                    96:bf:d0:c5:ef:b8:e3:2c:47:6a:8f:44:68:70:ed:
                    18:b9:f1:85:7b:2e:42:bc:44:5d:e3:d3:df:95:93:
                    8c:1d:ad:bc:9e:45:ad:6e:4f:78:68:6e:8f:ee:16:
                    a9:6e:9d:50:6b:9c:72:a0:d7:fe:ff:68:4b:1c:df:
                    18:fd:26:fb:65:be:c9:63:30:30:15:7d:f9:83:95:
                    c4:5e:2e:e5:d1:f0:ce:9c:5e:4a:6c:ec:6f:26:f6:
                    79:38:bc:15:e2:50:68:f0:46:c2:7f:7d:0a:c2:79:
                    08:b7:ea:41:18:d5:65:29:3e:6d:bb:80:8e:a2:0d:
                    c3:c4:8a:e2:dd:3c:19:01:e9:ea:0c:bb:db:6c:c7:
                    ed:6d:c5:7e:78:5f:5d:e2:87:d9:fa:90:3a:1d:c3:
                    b6:d8:7f:78:77:7b:e8:2c:bb:ed:04:18:72:a7:0f:
                    b2:ef:96:65:b4:39:a0:e9:59:b3:64:f4:db:9d:53:
                    42:9f
                Exponent: 65537 (0x10001)
        X509v3 extensions:
            X509v3 Subject Key Identifier: 
                86:F0:37:63:2C:67:7D:F8:D4:71:4D:9B:A3:47:47:BA:F5:F0:0E:90
            X509v3 Authority Key Identifier: 
                keyid:42:1A:C3:C4:D6:79:39:E2:20:E5:63:13:EB:41:7B:8C:0E:28:72:8E

            Authority Information Access: 
                CA Issuers - URI:http://url-for-aia/Intermediary.cer

            X509v3 CRL Distribution Points: 

                Full Name:
                  URI:http://url-for-crl/Intermediary.crl

            X509v3 Key Usage: critical
                Digital Signature, Key Encipherment
            X509v3 Extended Key Usage: 
                TLS Web Server Authentication, TLS Web Client Authentication
    Signature Algorithm: sha256WithRSAEncryption
         4e:86:be:e0:4b:d5:15:99:49:09:6c:9a:6d:9a:82:e2:41:3e:
         99:a5:e3:23:dd:43:d7:22:8d:c6:4f:4c:51:47:cb:32:44:b8:
         3a:f0:b6:88:0c:fd:08:d1:ea:0d:b0:72:fe:a0:48:6b:5d:a2:
         9e:f2:2d:12:6a:bf:68:ce:2e:d0:35:5f:da:32:c9:74:4b:29:
         53:81:69:a1:a1:1a:de:c8:5e:c1:73:21:b6:02:81:d8:57:ef:
         68:c3:24:f7:05:fa:ae:ed:d7:8a:62:e3:09:bf:fc:d0:41:93:
         e8:12:a5:fc:c3:46:d8:2b:f6:e3:cc:36:a7:39:cd:32:9e:9d:
         e1:79:68:ff:15:b9:10:5f:86:ad:4d:a0:dc:60:2f:1f:36:6f:
         d3:7a:60:81:c5:38:71:d0:fa:28:ae:ba:80:0e:cf:9c:ef:4d:
         1f:d4:0c:27:0f:55:a8:49:65:c1:d6:af:6d:b1:1d:fb:90:38:
         ad:8b:5e:ba:82:68:60:2a:e4:7a:b8:07:aa:91:37:84:d6:18:
         38:ba:37:a6:d9:bb:3b:45:da:59:8c:c5:90:11:1d:85:fe:af:
         fa:62:87:84:5d:5a:90:91:c3:6c:53:e1:d3:74:e7:51:19:b6:
         b5:e7:12:1a:73:35:34:16:dd:e4:31:62:58:de:3a:fb:40:80:
         21:4f:f5:13
-----BEGIN CERTIFICATE-----
MIIDjTCCAnWgAwIBAgIBATANBgkqhkiG9w0BAQsFADAXMRUwEwYDVQQDDAxJbnRl
cm1lZGlhcnkwHhcNMTUwMTAxMTIwMDAwWhcNMTYwMTAxMTIwMDAwWjARMQ8wDQYD
VQQDDAZUYXJnZXQwggEiMA0GCSqGSIb3DQEBAQUAA4IBDwAwggEKAoIBAQDcUKDQ
rzu21a9IvjEI25GBxcjXIojUdB4S3np5eRBx3rWKTtEdRmtGYuje+AH1nWs19qa3
8n9MX/mtEPZ+nIfcJ+U/GRzwxWkGUZa/0MXvuOMsR2qPRGhw7Ri58YV7LkK8RF3j
09+Vk4wdrbyeRa1uT3hobo/uFqlunVBrnHKg1/7/aEsc3xj9JvtlvsljMDAVffmD
lcReLuXR8M6cXkps7G8m9nk4vBXiUGjwRsJ/fQrCeQi36kEY1WUpPm27gI6iDcPE
iuLdPBkB6eoMu9tsx+1txX54X13ih9n6kDodw7bYf3h3e+gsu+0EGHKnD7LvlmW0
OaDpWbNk9NudU0KfAgMBAAGjgekwgeYwHQYDVR0OBBYEFIbwN2MsZ3341HFNm6NH
R7r18A6QMB8GA1UdIwQYMBaAFEIaw8TWeTniIOVjE+tBe4wOKHKOMD8GCCsGAQUF
BwEBBDMwMTAvBggrBgEFBQcwAoYjaHR0cDovL3VybC1mb3ItYWlhL0ludGVybWVk
aWFyeS5jZXIwNAYDVR0fBC0wKzApoCegJYYjaHR0cDovL3VybC1mb3ItY3JsL0lu
dGVybWVkaWFyeS5jcmwwDgYDVR0PAQH/BAQDAgWgMB0GA1UdJQQWMBQGCCsGAQUF
BwMBBggrBgEFBQcDAjANBgkqhkiG9w0BAQsFAAOCAQEAToa+4EvVFZlJCWyabZqC
4kE+maXjI91D1yKNxk9MUUfLMkS4OvC2iAz9CNHqDbBy/qBIa12invItEmq/aM4u
0DVf2jLJdEspU4FpoaEa3shewXMhtgKB2FfvaMMk9wX6ru3XimLjCb/80EGT6BKl
/MNG2Cv248w2pznNMp6d4Xlo/xW5EF+GrU2g3GAvHzZv03pggcU4cdD6KK66gA7P
nO9NH9QMJw9VqEllwdavbbEd+5A4rYteuoJoYCrkergHqpE3hNYYOLo3ptm7O0Xa
WYzFkBEdhf6v+mKHhF1akJHDbFPh03TnURm2tecSGnM1NBbd5DFiWN46+0CAIU/1
Ew==
-----END CERTIFICATE-----

Certificate:
    Data:
        Version: 3 (0x2)
        Serial Number: 2 (0x2)
    Signature Algorithm: sha256WithRSAEncryption
        Issuer: CN=Root
        Validity
            Not Before: Jan  1 12:00:00 2015 GMT
            Not After : Jan  1 12:00:00 2016 GMT
        Subject: CN=Intermediary
        Subject Public Key Info:
            Public Key Algorithm: rsaEncryption
                Public-Key: (2048 bit)
                Modulus:
                    00:a4:16:0d:45:92:8b:7b:8e:42:07:a1:f4:01:dc:
                    31:0e:68:b4:3f:f3:b7:0d:8f:08:f4:f0:bb:2b:45:
                    37:98:b4:3b:6f:61:7c:23:2e:6e:cf:33:a3:d1:09:
                    16:74:3f:ac:4f:59:f1:92:42:35:e6:8a:e9:98:5e:
                    39:a2:0d:45:26:8f:7d:bb:ad:bf:f8:66:a3:b0:eb:
                    7f:eb:79:60:9a:70:03:5d:9f:46:a8:47:64:7d:a9:
                    eb:a7:7d:77:60:3a:f5:5f:e8:bc:54:f3:d7:25:5e:
                    5b:62:3a:4a:df:f3:21:df:e4:bc:89:69:26:fa:d7:
                    24:16:f1:06:d0:57:a1:a0:aa:f2:bd:9f:0c:59:50:
                    57:c2:5d:25:24:05:eb:91:58:bb:1a:82:df:eb:03:
                    ec:55:ed:d4:46:b5:fe:2e:fa:08:14:d7:76:71:99:
                    2b:34:10:2d:20:21:ed:78:91:f9:05:04:14:42:a0:
                    ed:95:46:a3:a2:e6:55:1e:87:0b:1b:57:8e:e4:7c:
                    c5:c5:39:83:b1:c6:91:e1:54:8a:6f:6a:9b:a5:80:
                    93:ec:00:81:6f:20:70:6c:31:95:42:76:a3:82:17:
                    d8:d2:ff:3a:09:53:be:76:ea:e1:a9:fb:a9:a5:5f:
                    2b:5f:f9:5a:78:97:2e:f9:9d:31:42:2a:f9:1c:26:
                    16:7d
                Exponent: 65537 (0x10001)
        X509v3 extensions:
            X509v3 Subject Key Identifier: 
                42:1A:C3:C4:D6:79:39:E2:20:E5:63:13:EB:41:7B:8C:0E:28:72:8E
            X509v3 Authority Key Identifier: 
                keyid:FE:3F:EE:E8:53:09:31:CA:D4:66:C1:C7:FE:E0:74:C3:D7:81:44:5F

            Authority Information Access: 
                CA Issuers - URI:http://url-for-aia/Root.cer

            X509v3 CRL Distribution Points: 

                Full Name:
                  URI:http://url-for-crl/Root.crl

            X509v3 Key Usage: critical
                Certificate Sign, CRL Sign
            X509v3 Basic Constraints: critical
                CA:TRUE
    Signature Algorithm: sha256WithRSAEncryption
         af:11:72:82:33:e5:f9:b1:10:fc:c2:4a:9e:c8:8e:b4:16:51:
         62:8d:b5:e3:e3:c7:30:32:52:52:55:aa:6b:c4:c2:67:de:71:
         37:2d:85:68:80:c8:b7:9b:4b:05:6f:97:e1:82:03:f4:b7:07:
         b8:c2:a8:02:7a:60:34:c8:07:9b:7e:c3:02:bd:11:26:51:b4:
         4d:e2:6c:e4:38:bc:4c:e7:35:91:24:f1:40:6e:69:7f:ac:b4:
         ee:12:8a:1c:41:f6:96:13:93:67:c4:11:18:67:80:e6:41:ef:
         2b:3e:47:1a:57:b1:66:ac:87:93:ed:6c:fe:a2:c4:5a:47:75:
         d0:1b:01:b6:74:b6:f8:7b:aa:e3:91:c3:45:56:2b:a4:d2:67:
         94:18:71:e7:ea:41:14:bb:12:4e:56:d8:5a:95:89:bc:e6:89:
         be:9a:03:8c:b8:2b:18:56:7c:41:db:2d:e3:86:b5:de:aa:cb:
         11:da:91:8f:f2:75:1d:d2:b6:0b:bd:d6:b5:65:a5:96:1a:44:
         fd:66:80:89:bf:a5:a9:c4:fb:3f:2b:cc:f5:e7:a6:e6:bd:5f:
         e3:df:51:76:e3:e8:1c:e5:53:e9:6e:cf:e8:54:5f:f3:7f:ca:
         3a:b2:b2:07:7d:6c:29:a9:01:17:cf:f9:e8:0a:13:88:13:d3:
         ad:ac:be:ad
-----BEGIN CERTIFICATE-----
MIIDbTCCAlWgAwIBAgIBAjANBgkqhkiG9w0BAQsFADAPMQ0wCwYDVQQDDARSb290
MB4XDTE1MDEwMTEyMDAwMFoXDTE2MDEwMTEyMDAwMFowFzEVMBMGA1UEAwwMSW50
ZXJtZWRpYXJ5MIIBIjANBgkqhkiG9w0BAQEFAAOCAQ8AMIIBCgKCAQEApBYNRZKL
e45CB6H0AdwxDmi0P/O3DY8I9PC7K0U3mLQ7b2F8Iy5uzzOj0QkWdD+sT1nxkkI1
5orpmF45og1FJo99u62/+GajsOt/63lgmnADXZ9GqEdkfanrp313YDr1X+i8VPPX
JV5bYjpK3/Mh3+S8iWkm+tckFvEG0FehoKryvZ8MWVBXwl0lJAXrkVi7GoLf6wPs
Ve3URrX+LvoIFNd2cZkrNBAtICHteJH5BQQUQqDtlUajouZVHocLG1eO5HzFxTmD
scaR4VSKb2qbpYCT7ACBbyBwbDGVQnajghfY0v86CVO+durhqfuppV8rX/laeJcu
+Z0xQir5HCYWfQIDAQABo4HLMIHIMB0GA1UdDgQWBBRCGsPE1nk54iDlYxPrQXuM
DihyjjAfBgNVHSMEGDAWgBT+P+7oUwkxytRmwcf+4HTD14FEXzA3BggrBgEFBQcB
AQQrMCkwJwYIKwYBBQUHMAKGG2h0dHA6Ly91cmwtZm9yLWFpYS9Sb290LmNlcjAs
BgNVHR8EJTAjMCGgH6AdhhtodHRwOi8vdXJsLWZvci1jcmwvUm9vdC5jcmwwDgYD
VR0PAQH/BAQDAgEGMA8GA1UdEwEB/wQFMAMBAf8wDQYJKoZIhvcNAQELBQADggEB
AK8RcoIz5fmxEPzCSp7IjrQWUWKNtePjxzAyUlJVqmvEwmfecTcthWiAyLebSwVv
l+GCA/S3B7jCqAJ6YDTIB5t+wwK9ESZRtE3ibOQ4vEznNZEk8UBuaX+stO4SihxB
9pYTk2fEERhngOZB7ys+RxpXsWash5PtbP6ixFpHddAbAbZ0tvh7quORw0VWK6TS
Z5QYcefqQRS7Ek5W2FqVibzmib6aA4y4KxhWfEHbLeOGtd6qyxHakY/ydR3Stgu9
1rVlpZYaRP1mgIm/panE+z8rzPXnpua9X+PfUXbj6BzlU+luz+hUX/N/yjqysgd9
bCmpARfP+egKE4gT062svq0=
-----END CERTIFICATE-----

Certificate:
    Data:
        Version: 3 (0x2)
        Serial Number: 1 (0x1)
    Signature Algorithm: sha256WithRSAEncryption
        Issuer: CN=Root
        Validity
            Not Before: Jan  1 12:00:00 2015 GMT
            Not After : Jan  1 12:00:00 2016 GMT
        Subject: CN=Root
        Subject Public Key Info:
            Public Key Algorithm: rsaEncryption
                Public-Key: (2048 bit)
                Modulus:
                    00:ea:28:d6:83:e1:ad:7f:df:9a:70:91:b6:2a:45:
                    28:bb:1a:00:d2:1f:0c:6e:14:10:27:c0:65:c9:90:
                    40:45:83:6c:af:9a:66:ed:cb:59:2f:f7:82:67:74:
                    aa:1d:73:ec:f3:98:cb:38:9c:f6:6b:4f:bc:6b:5d:
                    f7:15:89:ed:02:f8:ed:17:69:df:a2:8d:ee:f5:d1:
                    84:92:42:b8:9f:fe:77:fd:d5:06:7b:6f:59:8a:2a:
                    c7:32:f5:ff:ad:f9:8a:59:e7:93:11:79:fe:f6:2a:
                    cb:99:db:a9:d7:05:a8:be:af:db:2e:b1:8a:56:8e:
                    f7:ec:b4:b0:a3:a4:96:39:79:69:3c:3b:ce:fe:42:
                    15:a8:56:bb:88:94:42:a5:0b:04:b4:e9:fa:c9:1a:
                    14:7d:c0:82:d5:d8:3a:de:ec:6f:a6:be:5c:43:6d:
                    85:f8:84:57:cd:06:b0:e1:63:a5:ab:05:14:2f:2d:
                    fb:04:99:fb:7e:ce:06:cf:3b:29:27:7a:70:1a:6b:
                    fb:6a:f3:a6:23:31:dd:93:80:67:b9:09:03:92:e2:
                    a9:c4:71:85:1b:a5:f9:1c:ff:86:b0:72:e3:23:58:
                    15:6c:4e:55:7f:89:91:35:0a:b3:41:ba:3c:17:76:
                    da:e6:39:6e:58:92:67:9d:06:c5:c8:84:e0:61:49:
                    ea:b3
                Exponent: 65537 (0x10001)
        X509v3 extensions:
            X509v3 Subject Key Identifier: 
                FE:3F:EE:E8:53:09:31:CA:D4:66:C1:C7:FE:E0:74:C3:D7:81:44:5F
            X509v3 Authority Key Identifier: 
                keyid:FE:3F:EE:E8:53:09:31:CA:D4:66:C1:C7:FE:E0:74:C3:D7:81:44:5F

            Authority Information Access: 
                CA Issuers - URI:http://url-for-aia/Root.cer

            X509v3 CRL Distribution Points: 

                Full Name:
                  URI:http://url-for-crl/Root.crl

            X509v3 Key Usage: critical
                Certificate Sign, CRL Sign
            X509v3 Basic Constraints: critical
                CA:TRUE
    Signature Algorithm: sha256WithRSAEncryption
         9f:ae:51:c1:f5:31:bf:30:6c:e1:b5:38:07:b5:c2:56:38:6b:
         3c:f3:49:50:93:5f:75:9e:94:15:5c:15:0a:91:87:6a:c1:fa:
         36:d6:4a:72:6f:cd:8c:9d:77:e7:61:96:14:88:4f:b2:71:d7:
         81:8f:06:9f:c7:14:49:0c:de:7c:73:ba:00:c8:44:58:ac:0a:
         4b:27:bb:3d:cb:fd:4d:14:dd:f7:61:b7:a0:f4:00:8a:ff:54:
         6b:c0:6a:6d:21:43:b8:9b:cb:f9:ad:9d:fe:2a:09:3d:a1:dd:
         de:17:7d:6f:74:44:79:0c:12:4e:d0:68:4f:b2:35:60:ef:95:
         da:a5:25:f8:e4:4c:ea:83:38:c1:26:83:db:13:78:58:1c:50:
         e3:20:93:b0:c8:5e:a0:76:5f:c2:fe:cc:16:3d:f6:2f:33:08:
         fe:61:af:57:cd:c6:ae:8a:d2:7b:98:e8:eb:98:9b:89:ff:47:
         24:d6:bf:a3:29:f6:e3:7e:e2:08:0b:a6:06:11:36:07:ea:61:
         5f:58:16:d3:c1:29:b4:c8:39:7c:32:98:17:82:e7:8c:0f:2e:
         34:bc:a3:78:62:15:29:95:4e:ca:c4:40:8b:29:2e:5c:8c:9b:
         14:ee:90:68:08:91:ef:64:fe:8f:61:89:cd:6b:44:dd:24:cf:
         7c:3d:a3:86
-----BEGIN TRUSTED_CERTIFICATE-----
MIIDZTCCAk2gAwIBAgIBATANBgkqhkiG9w0BAQsFADAPMQ0wCwYDVQQDDARSb290
MB4XDTE1MDEwMTEyMDAwMFoXDTE2MDEwMTEyMDAwMFowDzENMAsGA1UEAwwEUm9v
dDCCASIwDQYJKoZIhvcNAQEBBQADggEPADCCAQoCggEBAOoo1oPhrX/fmnCRtipF
KLsaANIfDG4UECfAZcmQQEWDbK+aZu3LWS/3gmd0qh1z7POYyzic9mtPvGtd9xWJ
7QL47Rdp36KN7vXRhJJCuJ/+d/3VBntvWYoqxzL1/635ilnnkxF5/vYqy5nbqdcF
qL6v2y6xilaO9+y0sKOkljl5aTw7zv5CFahWu4iUQqULBLTp+skaFH3AgtXYOt7s
b6a+XENthfiEV80GsOFjpasFFC8t+wSZ+37OBs87KSd6cBpr+2rzpiMx3ZOAZ7kJ
A5LiqcRxhRul+Rz/hrBy4yNYFWxOVX+JkTUKs0G6PBd22uY5bliSZ50GxciE4GFJ
6rMCAwEAAaOByzCByDAdBgNVHQ4EFgQU/j/u6FMJMcrUZsHH/uB0w9eBRF8wHwYD
VR0jBBgwFoAU/j/u6FMJMcrUZsHH/uB0w9eBRF8wNwYIKwYBBQUHAQEEKzApMCcG
CCsGAQUFBzAChhtodHRwOi8vdXJsLWZvci1haWEvUm9vdC5jZXIwLAYDVR0fBCUw
IzAhoB+gHYYbaHR0cDovL3VybC1mb3ItY3JsL1Jvb3QuY3JsMA4GA1UdDwEB/wQE
AwIBBjAPBgNVHRMBAf8EBTADAQH/MA0GCSqGSIb3DQEBCwUAA4IBAQCfrlHB9TG/
MGzhtTgHtcJWOGs880lQk191npQVXBUKkYdqwfo21kpyb82MnXfnYZYUiE+ycdeB
jwafxxRJDN58c7oAyERYrApLJ7s9y/1NFN33Ybeg9ACK/1RrwGptIUO4m8v5rZ3+
Kgk9od3eF31vdER5DBJO0GhPsjVg75XapSX45EzqgzjBJoPbE3hYHFDjIJOwyF6g
dl/C/swWPfYvMwj+Ya9XzcauitJ7mOjrmJuJ/0ck1r+jKfbjfuIIC6YGETYH6mFf
WBbTwSm0yDl8MpgXgueMDy40vKN4YhUplU7KxECLKS5cjJsU7pBoCJHvZP6PYYnN
a0TdJM98PaOG
-----END TRUSTED_CERTIFICATE-----

-----BEGIN TIME-----
MTUwMzAyMTIwMDAwWg==
-----END TIME-----

-----BEGIN VERIFY_RESULT-----
U1VDQ0VTUw==
-----END VERIFY_RESULT-----
