[Created by: generate-target-wrong-signature.py]

Certificate chain where the target has an incorrect signature. Everything
else should check out, however the digital signature contained in the target
certificate is wrong.

Certificate:
    Data:
        Version: 3 (0x2)
        Serial Number: 1 (0x1)
    Signature Algorithm: sha256WithRSAEncryption
        Issuer: CN=Intermediary
        Validity
            Not Before: Jan  1 12:00:00 2015 GMT
            Not After : Jan  1 12:00:00 2016 GMT
        Subject: CN=Target
        Subject Public Key Info:
            Public Key Algorithm: rsaEncryption
                Public-Key: (2048 bit)
                Modulus:
                    00:cd:40:90:3b:6e:2e:d4:5d:a8:08:3e:d4:69:a0:
                    ec:3b:62:99:ec:81:30:1b:6e:d0:92:8b:bd:df:17:
                    3a:fb:ce:bd:2a:32:5b:bb:5e:da:53:6c:b9:3d:4b:
                    a8:0b:12:41:61:d3:f9:3f:23:b9:71:3f:33:8a:bf:
                    57:48:bd:99:e1:5d:c7:99:72:fd:ac:f4:4f:e1:cd:
                    ca:b8:0c:81:57:64:c5:56:1f:d9:ed:f8:df:c6:60:
                    70:82:ee:b5:23:4a:a4:b5:d6:b4:e3:84:74:c9:ca:
                    da:d7:a7:11:51:c4:56:36:6c:b4:53:0e:35:e5:63:
                    fa:fd:75:df:72:01:31:17:e9:4d:35:8c:ae:a9:c1:
                    3b:ae:ac:06:75:e0:77:2b:36:97:e5:bb:99:34:b6:
                    dc:f4:11:f6:2f:33:4e:db:4b:73:18:78:51:e6:12:
                    d1:be:94:2a:02:33:d9:bc:8a:36:dc:12:f0:2f:ae:
                    57:4b:66:f0:ba:e6:1b:65:01:de:95:06:63:22:9b:
                    d0:58:42:55:99:34:06:ec:5a:00:f2:77:ed:71:23:
                    24:7d:66:9a:e0:8c:d3:64:91:0a:a6:5b:36:43:36:
                    e3:07:33:a0:c3:fa:46:9c:3e:81:b2:2c:a6:51:92:
                    a7:7a:01:cb:95:1a:ea:cf:3c:fa:93:2d:81:5b:29:
                    98:d5
                Exponent: 65537 (0x10001)
        X509v3 extensions:
            X509v3 Subject Key Identifier: 
                7F:F7:32:82:5E:B7:BD:FB:F8:64:38:93:2A:B1:6E:10:D6:4A:B4:28
            X509v3 Authority Key Identifier: 
                keyid:E1:EB:47:46:C2:78:53:C4:B6:58:28:94:20:81:58:06:93:17:36:7F

            Authority Information Access: 
                CA Issuers - URI:http://url-for-aia/Intermediary.cer

            X509v3 CRL Distribution Points: 

                Full Name:
                  URI:http://url-for-crl/Intermediary.crl

            X509v3 Key Usage: critical
                Digital Signature, Key Encipherment
            X509v3 Extended Key Usage: 
                TLS Web Server Authentication, TLS Web Client Authentication
    Signature Algorithm: sha256WithRSAEncryption
         80:dc:43:74:98:bf:da:2c:ea:5f:60:45:7f:d9:90:46:b1:f1:
         ba:ea:9f:e3:39:40:4e:43:51:30:f1:a6:1a:c7:52:48:ed:de:
         2a:d8:6d:0d:b6:b2:69:a7:d7:e6:e9:4d:c3:73:c6:e5:3f:56:
         06:04:79:d2:a5:56:b7:a6:a5:a8:a2:2c:4f:0e:fa:fe:4f:39:
         11:5a:83:76:af:5e:0f:5d:df:0e:c6:c2:ea:79:19:04:92:a1:
         c7:57:b2:16:83:c3:44:d1:47:89:e1:14:eb:1c:2c:f0:a9:63:
         ed:31:fc:43:d0:93:c5:4c:7f:d3:68:6e:9b:81:2c:4f:70:71:
         90:af:98:ce:f6:73:97:5b:dc:13:d3:d9:01:8e:5f:34:a8:00:
         1d:71:89:a7:6e:12:f3:df:9d:4b:18:1f:0f:84:59:2b:7f:d0:
         05:5d:5f:e7:97:b7:26:ab:c1:12:87:19:28:6a:43:dc:c0:76:
         38:8a:fc:16:93:92:d3:2e:69:1f:9b:f3:1d:75:0d:32:89:f6:
         ca:a4:8c:f2:c6:0a:17:e4:29:c3:bc:a6:33:df:c2:cd:42:97:
         28:65:1f:99:c9:6b:41:0e:4b:59:de:32:f2:1e:f7:62:88:66:
         c6:d1:e7:9a:25:78:86:7d:e3:f3:4e:f7:18:11:ce:bc:37:56:
         78:f4:04:b1
-----BEGIN CERTIFICATE-----
MIIDjTCCAnWgAwIBAgIBATANBgkqhkiG9w0BAQsFADAXMRUwEwYDVQQDDAxJbnRl
cm1lZGlhcnkwHhcNMTUwMTAxMTIwMDAwWhcNMTYwMTAxMTIwMDAwWjARMQ8wDQYD
VQQDDAZUYXJnZXQwggEiMA0GCSqGSIb3DQEBAQUAA4IBDwAwggEKAoIBAQDNQJA7
bi7UXagIPtRpoOw7YpnsgTAbbtCSi73fFzr7zr0qMlu7XtpTbLk9S6gLEkFh0/k/
I7lxPzOKv1dIvZnhXceZcv2s9E/hzcq4DIFXZMVWH9nt+N/GYHCC7rUjSqS11rTj
hHTJytrXpxFRxFY2bLRTDjXlY/r9dd9yATEX6U01jK6pwTuurAZ14HcrNpflu5k0
ttz0EfYvM07bS3MYeFHmEtG+lCoCM9m8ijbcEvAvrldLZvC65htlAd6VBmMim9BY
QlWZNAbsWgDyd+1xIyR9ZprgjNNkkQqmWzZDNuMHM6DD+kacPoGyLKZRkqd6AcuV
GurPPPqTLYFbKZjVAgMBAAGjgekwgeYwHQYDVR0OBBYEFH/3MoJet737+GQ4kyqx
bhDWSrQoMB8GA1UdIwQYMBaAFOHrR0bCeFPEtlgolCCBWAaTFzZ/MD8GCCsGAQUF
BwEBBDMwMTAvBggrBgEFBQcwAoYjaHR0cDovL3VybC1mb3ItYWlhL0ludGVybWVk
aWFyeS5jZXIwNAYDVR0fBC0wKzApoCegJYYjaHR0cDovL3VybC1mb3ItY3JsL0lu
dGVybWVkaWFyeS5jcmwwDgYDVR0PAQH/BAQDAgWgMB0GA1UdJQQWMBQGCCsGAQUF
BwMBBggrBgEFBQcDAjANBgkqhkiG9w0BAQsFAAOCAQEAgNxDdJi/2izqX2BFf9mQ
RrHxuuqf4zlATkNRMPGmGsdSSO3eKthtDbayaafX5ulNw3PG5T9WBgR50qVWt6al
qKIsTw76/k85EVqDdq9eD13fDsbC6nkZBJKhx1eyFoPDRNFHieEU6xws8Klj7TH8
Q9CTxUx/02hum4EsT3BxkK+YzvZzl1vcE9PZAY5fNKgAHXGJp24S89+dSxgfD4RZ
K3/QBV1f55e3JqvBEocZKGpD3MB2OIr8FpOS0y5pH5vzHXUNMon2yqSM8sYKF+Qp
w7ymM9/CzUKXKGUfmclrQQ5LWd4y8h73YohmxtHnmiV4hn3j8073GBHOvDdWePQE
sQ==
-----END CERTIFICATE-----

Certificate:
    Data:
        Version: 3 (0x2)
        Serial Number: 3 (0x3)
    Signature Algorithm: sha256WithRSAEncryption
        Issuer: CN=Root
        Validity
            Not Before: Jan  1 12:00:00 2015 GMT
            Not After : Jan  1 12:00:00 2016 GMT
        Subject: CN=Intermediary
        Subject Public Key Info:
            Public Key Algorithm: rsaEncryption
                Public-Key: (2048 bit)
                Modulus:
                    00:c8:7f:42:62:ee:29:ef:bb:58:84:48:c3:aa:61:
                    ca:32:b1:ec:f0:e6:34:0b:f4:7e:d2:21:46:bb:bb:
                    b5:fb:43:ef:e8:66:88:2e:a3:86:4f:2e:95:51:f8:
                    82:dd:c4:7a:9f:3b:6e:81:4d:32:eb:a6:c7:05:4a:
                    1d:f1:bd:31:9a:2d:45:0b:2e:a9:9b:d4:13:a4:55:
                    40:1c:12:db:4b:76:2b:31:cc:8b:fb:f7:a4:52:e1:
                    de:f7:0f:b8:17:47:a4:0a:1e:53:b9:7c:a6:cc:ac:
                    ed:40:72:d1:9c:93:85:05:2e:77:1e:60:ab:7d:fc:
                    46:0f:f1:47:65:09:53:62:c6:90:db:5d:4e:ee:cd:
                    e9:ea:f0:18:f0:ba:a3:91:e2:bf:7b:24:e9:eb:13:
                    48:4e:05:63:f4:40:b8:f1:84:7b:d6:91:e9:90:50:
                    c2:7a:f7:44:2e:70:ad:73:c1:5a:3c:32:5e:3c:9b:
                    15:5f:9a:b2:48:03:50:a6:72:2f:10:94:81:e5:27:
                    bf:28:01:6a:a2:ef:3f:6c:10:b0:a2:02:72:27:d8:
                    1c:0c:d4:4d:06:55:48:19:ab:6d:67:56:cd:2d:55:
                    63:e5:50:63:02:7d:cc:c6:28:ef:29:ed:db:50:f2:
                    31:23:dd:52:f3:27:7e:fd:e1:5f:6f:f5:0f:69:58:
                    2b:01
                Exponent: 65537 (0x10001)
        X509v3 extensions:
            X509v3 Subject Key Identifier: 
                C4:E1:12:23:5E:5D:61:E9:F8:C1:9E:0E:57:94:54:97:B2:4E:0B:65
            X509v3 Authority Key Identifier: 
                keyid:81:56:F3:D5:96:CB:97:DE:87:18:26:E0:E7:E9:59:9E:58:FC:8B:76

            Authority Information Access: 
                CA Issuers - URI:http://url-for-aia/Root.cer

            X509v3 CRL Distribution Points: 

                Full Name:
                  URI:http://url-for-crl/Root.crl

            X509v3 Key Usage: critical
                Certificate Sign, CRL Sign
            X509v3 Basic Constraints: critical
                CA:TRUE
    Signature Algorithm: sha256WithRSAEncryption
         4a:7b:2a:d9:aa:69:78:28:dc:2d:46:22:f2:ec:d3:09:b7:b7:
         91:2b:6d:a0:07:b9:8a:9e:5c:11:73:ba:1d:61:ed:07:b2:a3:
         7e:3c:48:f3:95:59:ed:98:e9:40:9c:88:47:47:23:9e:37:ce:
         f3:49:b5:53:51:be:4a:8b:77:ac:ef:76:2a:3b:11:d1:92:61:
         cc:f4:04:85:09:c2:83:db:21:cc:20:a6:49:3d:54:da:e8:ba:
         e2:0f:f6:15:fd:cb:83:8a:82:17:b2:c3:43:dd:a4:0a:42:61:
         59:75:5c:c6:5b:7e:5f:97:e6:ea:7e:bc:19:17:5b:df:9e:72:
         a4:31:fd:64:6d:34:5b:05:39:5d:f3:2d:35:44:0a:cc:da:cb:
         af:86:06:14:0f:ae:47:9e:ff:f1:55:dc:32:4b:9b:43:df:60:
         d9:ee:0a:09:95:08:43:c3:c3:18:30:c6:56:f1:d0:b9:17:c9:
         19:5f:a5:c3:a2:76:c0:ad:b2:73:24:0e:34:03:f0:83:17:a5:
         ac:b1:4f:9e:38:3d:7d:82:f6:90:ca:43:f5:37:c4:1a:19:2e:
         a5:a9:40:64:0a:fb:d1:eb:42:c2:42:f1:08:26:6b:d6:c3:59:
         bc:14:99:95:b3:62:80:92:93:49:4f:95:fe:71:e8:7c:3d:ee:
         21:99:7a:aa
-----BEGIN CERTIFICATE-----
MIIDbTCCAlWgAwIBAgIBAzANBgkqhkiG9w0BAQsFADAPMQ0wCwYDVQQDDARSb290
MB4XDTE1MDEwMTEyMDAwMFoXDTE2MDEwMTEyMDAwMFowFzEVMBMGA1UEAwwMSW50
ZXJtZWRpYXJ5MIIBIjANBgkqhkiG9w0BAQEFAAOCAQ8AMIIBCgKCAQEAyH9CYu4p
77tYhEjDqmHKMrHs8OY0C/R+0iFGu7u1+0Pv6GaILqOGTy6VUfiC3cR6nztugU0y
66bHBUod8b0xmi1FCy6pm9QTpFVAHBLbS3YrMcyL+/ekUuHe9w+4F0ekCh5TuXym
zKztQHLRnJOFBS53HmCrffxGD/FHZQlTYsaQ211O7s3p6vAY8LqjkeK/eyTp6xNI
TgVj9EC48YR71pHpkFDCevdELnCtc8FaPDJePJsVX5qySANQpnIvEJSB5Se/KAFq
ou8/bBCwogJyJ9gcDNRNBlVIGattZ1bNLVVj5VBjAn3MxijvKe3bUPIxI91S8yd+
/eFfb/UPaVgrAQIDAQABo4HLMIHIMB0GA1UdDgQWBBTE4RIjXl1h6fjBng5XlFSX
sk4LZTAfBgNVHSMEGDAWgBSBVvPVlsuX3ocYJuDn6VmeWPyLdjA3BggrBgEFBQcB
AQQrMCkwJwYIKwYBBQUHMAKGG2h0dHA6Ly91cmwtZm9yLWFpYS9Sb290LmNlcjAs
BgNVHR8EJTAjMCGgH6AdhhtodHRwOi8vdXJsLWZvci1jcmwvUm9vdC5jcmwwDgYD
VR0PAQH/BAQDAgEGMA8GA1UdEwEB/wQFMAMBAf8wDQYJKoZIhvcNAQELBQADggEB
AEp7KtmqaXgo3C1GIvLs0wm3t5ErbaAHuYqeXBFzuh1h7Qeyo348SPOVWe2Y6UCc
iEdHI543zvNJtVNRvkqLd6zvdio7EdGSYcz0BIUJwoPbIcwgpkk9VNrouuIP9hX9
y4OKgheyw0PdpApCYVl1XMZbfl+X5up+vBkXW9+ecqQx/WRtNFsFOV3zLTVECsza
y6+GBhQPrkee//FV3DJLm0PfYNnuCgmVCEPDwxgwxlbx0LkXyRlfpcOidsCtsnMk
DjQD8IMXpayxT544PX2C9pDKQ/U3xBoZLqWpQGQK+9HrQsJC8Qgma9bDWbwUmZWz
YoCSk0lPlf5x6Hw97iGZeqo=
-----END CERTIFICATE-----

Certificate:
    Data:
        Version: 3 (0x2)
        Serial Number: 1 (0x1)
    Signature Algorithm: sha256WithRSAEncryption
        Issuer: CN=Root
        Validity
            Not Before: Jan  1 12:00:00 2015 GMT
            Not After : Jan  1 12:00:00 2016 GMT
        Subject: CN=Root
        Subject Public Key Info:
            Public Key Algorithm: rsaEncryption
                Public-Key: (2048 bit)
                Modulus:
                    00:ce:b8:01:ca:69:e8:5c:e1:16:2a:54:88:85:15:
                    66:e9:09:2e:04:cf:e8:7f:98:b0:63:1a:39:b9:25:
                    0d:dd:d8:81:f6:e3:d3:3b:98:39:70:09:eb:ed:63:
                    35:91:6a:bf:c4:4e:38:fa:04:a7:1c:bd:32:92:3b:
                    5b:2b:29:f3:94:bc:b2:e6:69:7c:32:57:40:36:1b:
                    6a:1f:9d:12:10:96:db:75:2b:77:bb:50:95:0e:03:
                    65:d7:28:85:12:c8:54:89:38:be:2c:83:81:59:31:
                    c7:36:d8:d8:89:28:f3:87:7d:ab:b8:24:c0:d9:43:
                    a8:c8:0d:18:fa:98:4c:32:90:73:4c:86:ec:b1:c1:
                    52:1f:af:03:73:84:7c:80:ee:72:56:4e:49:91:0e:
                    1d:16:bc:ad:39:5a:dd:52:96:cb:87:09:e0:15:6a:
                    a4:ac:24:5c:c0:93:13:4b:09:1e:b7:bd:a6:0b:0a:
                    94:96:5d:b5:7f:3a:ea:25:cd:c3:c5:7a:49:6a:89:
                    42:db:e6:b5:71:fc:46:45:19:d2:33:d8:e4:95:a4:
                    53:12:fd:09:f1:94:d8:24:28:d3:cc:ec:21:bd:cb:
                    46:1b:24:d9:5a:70:86:1d:cb:7f:6c:be:24:7c:e4:
                    37:72:3e:4f:c5:3e:01:68:d8:3b:ae:4a:ab:b2:90:
                    3c:cd
                Exponent: 65537 (0x10001)
        X509v3 extensions:
            X509v3 Subject Key Identifier: 
                81:56:F3:D5:96:CB:97:DE:87:18:26:E0:E7:E9:59:9E:58:FC:8B:76
            X509v3 Authority Key Identifier: 
                keyid:81:56:F3:D5:96:CB:97:DE:87:18:26:E0:E7:E9:59:9E:58:FC:8B:76

            Authority Information Access: 
                CA Issuers - URI:http://url-for-aia/Root.cer

            X509v3 CRL Distribution Points: 

                Full Name:
                  URI:http://url-for-crl/Root.crl

            X509v3 Key Usage: critical
                Certificate Sign, CRL Sign
            X509v3 Basic Constraints: critical
                CA:TRUE
    Signature Algorithm: sha256WithRSAEncryption
         49:ab:00:40:12:3b:b6:18:a4:f7:c0:e3:94:db:49:b3:45:02:
         45:ac:38:50:2c:4f:b9:a3:31:4f:99:e5:1a:3d:a7:76:23:1f:
         47:83:c4:ea:11:1e:98:f4:a5:d2:d3:76:d1:e7:47:23:09:5f:
         e6:de:ef:d3:9e:aa:fa:42:4f:2e:14:2e:78:ee:0f:3f:ac:53:
         1c:d5:7f:b2:ec:4e:34:bd:c6:10:f4:be:fa:31:e4:a3:67:7e:
         3e:31:e7:55:ad:17:8c:b3:72:e0:19:5e:77:59:06:bb:56:8e:
         81:ec:c8:b5:c1:95:d6:6c:53:9c:86:a0:19:72:1d:47:ea:be:
         ad:bc:4d:cd:26:f8:87:75:ff:08:1d:9a:d5:f8:7c:ae:3f:57:
         97:3a:54:aa:90:5a:b5:93:97:3f:47:be:34:2d:14:bf:7d:fd:
         be:67:88:22:7e:b7:b5:3a:a0:3a:b0:d2:0f:9d:28:1e:fb:1a:
         c0:11:ed:ba:a6:4e:c5:6f:2a:4b:90:84:26:1d:2b:f0:14:40:
         7a:55:22:c7:7d:39:ee:42:30:7f:b5:4a:0b:d5:1b:12:42:36:
         62:86:b2:02:68:24:8a:c3:a6:7e:18:b1:15:5d:d4:f0:62:2c:
         cf:09:0d:7d:8f:80:a5:13:8d:9a:53:87:70:f0:94:b1:62:71:
         e3:b9:b0:d1
-----BEGIN TRUSTED_CERTIFICATE-----
MIIDZTCCAk2gAwIBAgIBATANBgkqhkiG9w0BAQsFADAPMQ0wCwYDVQQDDARSb290
MB4XDTE1MDEwMTEyMDAwMFoXDTE2MDEwMTEyMDAwMFowDzENMAsGA1UEAwwEUm9v
dDCCASIwDQYJKoZIhvcNAQEBBQADggEPADCCAQoCggEBAM64Acpp6FzhFipUiIUV
ZukJLgTP6H+YsGMaObklDd3Ygfbj0zuYOXAJ6+1jNZFqv8ROOPoEpxy9MpI7Wysp
85S8suZpfDJXQDYbah+dEhCW23Urd7tQlQ4DZdcohRLIVIk4viyDgVkxxzbY2Iko
84d9q7gkwNlDqMgNGPqYTDKQc0yG7LHBUh+vA3OEfIDuclZOSZEOHRa8rTla3VKW
y4cJ4BVqpKwkXMCTE0sJHre9pgsKlJZdtX866iXNw8V6SWqJQtvmtXH8RkUZ0jPY
5JWkUxL9CfGU2CQo08zsIb3LRhsk2Vpwhh3Lf2y+JHzkN3I+T8U+AWjYO65Kq7KQ
PM0CAwEAAaOByzCByDAdBgNVHQ4EFgQUgVbz1ZbLl96HGCbg5+lZnlj8i3YwHwYD
VR0jBBgwFoAUgVbz1ZbLl96HGCbg5+lZnlj8i3YwNwYIKwYBBQUHAQEEKzApMCcG
CCsGAQUFBzAChhtodHRwOi8vdXJsLWZvci1haWEvUm9vdC5jZXIwLAYDVR0fBCUw
IzAhoB+gHYYbaHR0cDovL3VybC1mb3ItY3JsL1Jvb3QuY3JsMA4GA1UdDwEB/wQE
AwIBBjAPBgNVHRMBAf8EBTADAQH/MA0GCSqGSIb3DQEBCwUAA4IBAQBJqwBAEju2
GKT3wOOU20mzRQJFrDhQLE+5ozFPmeUaPad2Ix9Hg8TqER6Y9KXS03bR50cjCV/m
3u/Tnqr6Qk8uFC547g8/rFMc1X+y7E40vcYQ9L76MeSjZ34+MedVrReMs3LgGV53
WQa7Vo6B7Mi1wZXWbFOchqAZch1H6r6tvE3NJviHdf8IHZrV+HyuP1eXOlSqkFq1
k5c/R740LRS/ff2+Z4gifre1OqA6sNIPnSge+xrAEe26pk7FbypLkIQmHSvwFEB6
VSLHfTnuQjB/tUoL1RsSQjZihrICaCSKw6Z+GLEVXdTwYizPCQ19j4ClE42aU4dw
8JSxYnHjubDR
-----END TRUSTED_CERTIFICATE-----

-----BEGIN TIME-----
MTUwMzAyMTIwMDAwWg==
-----END TIME-----

-----BEGIN VERIFY_RESULT-----
RkFJTA==
-----END VERIFY_RESULT-----
